
build/2048:     file format elf64-littleriscv


Disassembly of section .text:

0000000052000000 <_start>:
    52000000:	838a                	mv	t2,sp
    52000002:	00001297          	auipc	t0,0x1
    52000006:	3de28293          	addi	t0,t0,990 # 520013e0 <__BSS_END__>
    5200000a:	00001317          	auipc	t1,0x1
    5200000e:	3d630313          	addi	t1,t1,982 # 520013e0 <__BSS_END__>

0000000052000012 <clear_bss>:
    52000012:	0062d663          	bge	t0,t1,5200001e <bss_done>
    52000016:	0002a023          	sw	zero,0(t0)
    5200001a:	0291                	addi	t0,t0,4
    5200001c:	bfdd                	j	52000012 <clear_bss>

000000005200001e <bss_done>:
    5200001e:	53000137          	lui	sp,0x53000
    52000022:	1141                	addi	sp,sp,-16 # 52fffff0 <__BSS_END__+0xffec10>
    52000024:	e006                	sd	ra,0(sp)
    52000026:	e41e                	sd	t2,8(sp)
    52000028:	012000ef          	jal	5200003a <main>
    5200002c:	6082                	ld	ra,0(sp)
    5200002e:	63a2                	ld	t2,8(sp)
    52000030:	811e                	mv	sp,t2
    52000032:	9082                	jalr	ra

0000000052000034 <loop>:
    52000034:	10500073          	wfi
    52000038:	bff5                	j	52000034 <loop>

000000005200003a <main>:
    5200003a:	7151                	addi	sp,sp,-240
    5200003c:	f586                	sd	ra,232(sp)
    5200003e:	f1a2                	sd	s0,224(sp)
    52000040:	eda6                	sd	s1,216(sp)
    52000042:	e9ca                	sd	s2,208(sp)
    52000044:	e5ce                	sd	s3,200(sp)
    52000046:	369000ef          	jal	52000bae <menu>
    5200004a:	0108                	addi	a0,sp,128
    5200004c:	52000937          	lui	s2,0x52000
    52000050:	520004b7          	lui	s1,0x52000
    52000054:	c602                	sw	zero,12(sp)
    52000056:	f0090913          	addi	s2,s2,-256 # 51ffff00 <_start-0x100>
    5200005a:	323000ef          	jal	52000b7c <initialize>
    5200005e:	f1048493          	addi	s1,s1,-240 # 51ffff10 <_start-0xf0>
    52000062:	4401                	li	s0,0
    52000064:	4981                	li	s3,0
    52000066:	00093783          	ld	a5,0(s2)
    5200006a:	4701                	li	a4,0
    5200006c:	4681                	li	a3,0
    5200006e:	4601                	li	a2,0
    52000070:	4581                	li	a1,0
    52000072:	00001517          	auipc	a0,0x1
    52000076:	c3650513          	addi	a0,a0,-970 # 52000ca8 <print_scores+0xa4>
    5200007a:	9782                	jalr	a5
    5200007c:	0108                	addi	a0,sp,128
    5200007e:	65a000ef          	jal	520006d8 <print>
    52000082:	00093783          	ld	a5,0(s2)
    52000086:	4701                	li	a4,0
    52000088:	4681                	li	a3,0
    5200008a:	4601                	li	a2,0
    5200008c:	4581                	li	a1,0
    5200008e:	00001517          	auipc	a0,0x1
    52000092:	e5250513          	addi	a0,a0,-430 # 52000ee0 <print_scores+0x2dc>
    52000096:	9782                	jalr	a5
    52000098:	00b8                	addi	a4,sp,72
    5200009a:	4781                	li	a5,0
    5200009c:	4681                	li	a3,0
    5200009e:	4601                	li	a2,0
    520000a0:	45a9                	li	a1,10
    520000a2:	854e                	mv	a0,s3
    520000a4:	11a000ef          	jal	520001be <simple_itoa.part.0>
    520000a8:	00093783          	ld	a5,0(s2)
    520000ac:	4701                	li	a4,0
    520000ae:	4681                	li	a3,0
    520000b0:	4601                	li	a2,0
    520000b2:	4581                	li	a1,0
    520000b4:	00a8                	addi	a0,sp,72
    520000b6:	9782                	jalr	a5
    520000b8:	00093783          	ld	a5,0(s2)
    520000bc:	4701                	li	a4,0
    520000be:	4681                	li	a3,0
    520000c0:	4601                	li	a2,0
    520000c2:	4581                	li	a1,0
    520000c4:	00001517          	auipc	a0,0x1
    520000c8:	e2c50513          	addi	a0,a0,-468 # 52000ef0 <print_scores+0x2ec>
    520000cc:	9782                	jalr	a5
    520000ce:	8522                	mv	a0,s0
    520000d0:	0818                	addi	a4,sp,16
    520000d2:	4781                	li	a5,0
    520000d4:	4681                	li	a3,0
    520000d6:	4601                	li	a2,0
    520000d8:	45a9                	li	a1,10
    520000da:	0e4000ef          	jal	520001be <simple_itoa.part.0>
    520000de:	00093783          	ld	a5,0(s2)
    520000e2:	4701                	li	a4,0
    520000e4:	4681                	li	a3,0
    520000e6:	4601                	li	a2,0
    520000e8:	4581                	li	a1,0
    520000ea:	0808                	addi	a0,sp,16
    520000ec:	9782                	jalr	a5
    520000ee:	00093783          	ld	a5,0(s2)
    520000f2:	4701                	li	a4,0
    520000f4:	4681                	li	a3,0
    520000f6:	4601                	li	a2,0
    520000f8:	4581                	li	a1,0
    520000fa:	00001517          	auipc	a0,0x1
    520000fe:	e0650513          	addi	a0,a0,-506 # 52000f00 <print_scores+0x2fc>
    52000102:	9782                	jalr	a5
    52000104:	547d                	li	s0,-1
    52000106:	609c                	ld	a5,0(s1)
    52000108:	4701                	li	a4,0
    5200010a:	4681                	li	a3,0
    5200010c:	4601                	li	a2,0
    5200010e:	4581                	li	a1,0
    52000110:	4501                	li	a0,0
    52000112:	9782                	jalr	a5
    52000114:	0005079b          	sext.w	a5,a0
    52000118:	fe8787e3          	beq	a5,s0,52000106 <main+0xcc>
    5200011c:	0ff57513          	zext.b	a0,a0
    52000120:	0070                	addi	a2,sp,12
    52000122:	010c                	addi	a1,sp,128
    52000124:	0cf000ef          	jal	520009f2 <onKeyPress>
    52000128:	478d                	li	a5,3
    5200012a:	06f50963          	beq	a0,a5,5200019c <main+0x162>
    5200012e:	4789                	li	a5,2
    52000130:	02f50b63          	beq	a0,a5,52000166 <main+0x12c>
    52000134:	4432                	lw	s0,12(sp)
    52000136:	87a2                	mv	a5,s0
    52000138:	01345363          	bge	s0,s3,5200013e <main+0x104>
    5200013c:	87ce                	mv	a5,s3
    5200013e:	0108                	addi	a0,sp,128
    52000140:	0007899b          	sext.w	s3,a5
    52000144:	155000ef          	jal	52000a98 <check>
    52000148:	4785                	li	a5,1
    5200014a:	02f51463          	bne	a0,a5,52000172 <main+0x138>
    5200014e:	00093783          	ld	a5,0(s2)
    52000152:	4701                	li	a4,0
    52000154:	4681                	li	a3,0
    52000156:	4601                	li	a2,0
    52000158:	4581                	li	a1,0
    5200015a:	00001517          	auipc	a0,0x1
    5200015e:	c2e50513          	addi	a0,a0,-978 # 52000d88 <print_scores+0x184>
    52000162:	9782                	jalr	a5
    52000164:	b709                	j	52000066 <main+0x2c>
    52000166:	0108                	addi	a0,sp,128
    52000168:	c602                	sw	zero,12(sp)
    5200016a:	4401                	li	s0,0
    5200016c:	211000ef          	jal	52000b7c <initialize>
    52000170:	bddd                	j	52000066 <main+0x2c>
    52000172:	00001517          	auipc	a0,0x1
    52000176:	b3650513          	addi	a0,a0,-1226 # 52000ca8 <print_scores+0xa4>
    5200017a:	030000ef          	jal	520001aa <bios_putstr>
    5200017e:	0108                	addi	a0,sp,128
    52000180:	558000ef          	jal	520006d8 <print>
    52000184:	85a2                	mv	a1,s0
    52000186:	854e                	mv	a0,s3
    52000188:	27d000ef          	jal	52000c04 <print_scores>
    5200018c:	70ae                	ld	ra,232(sp)
    5200018e:	740e                	ld	s0,224(sp)
    52000190:	64ee                	ld	s1,216(sp)
    52000192:	694e                	ld	s2,208(sp)
    52000194:	69ae                	ld	s3,200(sp)
    52000196:	4501                	li	a0,0
    52000198:	616d                	addi	sp,sp,240
    5200019a:	8082                	ret
    5200019c:	00001517          	auipc	a0,0x1
    520001a0:	d6c50513          	addi	a0,a0,-660 # 52000f08 <print_scores+0x304>
    520001a4:	006000ef          	jal	520001aa <bios_putstr>
    520001a8:	b7d5                	j	5200018c <main+0x152>

00000000520001aa <bios_putstr>:
    520001aa:	520007b7          	lui	a5,0x52000
    520001ae:	f0078793          	addi	a5,a5,-256 # 51ffff00 <_start-0x100>
    520001b2:	639c                	ld	a5,0(a5)
    520001b4:	4701                	li	a4,0
    520001b6:	4681                	li	a3,0
    520001b8:	4601                	li	a2,0
    520001ba:	4581                	li	a1,0
    520001bc:	8782                	jr	a5

00000000520001be <simple_itoa.part.0>:
    520001be:	0c055363          	bgez	a0,52000284 <simple_itoa.part.0+0xc6>
    520001c2:	e2e9                	bnez	a3,52000284 <simple_itoa.part.0+0xc6>
    520001c4:	40a00533          	neg	a0,a0
    520001c8:	4305                	li	t1,1
    520001ca:	06100893          	li	a7,97
    520001ce:	c219                	beqz	a2,520001d4 <simple_itoa.part.0+0x16>
    520001d0:	04100893          	li	a7,65
    520001d4:	1582                	slli	a1,a1,0x20
    520001d6:	9181                	srli	a1,a1,0x20
    520001d8:	38d9                	addiw	a7,a7,-10
    520001da:	863a                	mv	a2,a4
    520001dc:	4825                	li	a6,9
    520001de:	a811                	j	520001f2 <simple_itoa.part.0+0x34>
    520001e0:	02b54533          	div	a0,a0,a1
    520001e4:	0306869b          	addiw	a3,a3,48
    520001e8:	00d60023          	sb	a3,0(a2)
    520001ec:	0605                	addi	a2,a2,1
    520001ee:	00a05f63          	blez	a0,5200020c <simple_itoa.part.0+0x4e>
    520001f2:	02b566b3          	rem	a3,a0,a1
    520001f6:	fed855e3          	bge	a6,a3,520001e0 <simple_itoa.part.0+0x22>
    520001fa:	02b54533          	div	a0,a0,a1
    520001fe:	00d886bb          	addw	a3,a7,a3
    52000202:	00d60023          	sb	a3,0(a2)
    52000206:	0605                	addi	a2,a2,1
    52000208:	fea045e3          	bgtz	a0,520001f2 <simple_itoa.part.0+0x34>
    5200020c:	40e606bb          	subw	a3,a2,a4
    52000210:	02f6f463          	bgeu	a3,a5,52000238 <simple_itoa.part.0+0x7a>
    52000214:	fff7859b          	addiw	a1,a5,-1
    52000218:	9d95                	subw	a1,a1,a3
    5200021a:	1582                	slli	a1,a1,0x20
    5200021c:	9181                	srli	a1,a1,0x20
    5200021e:	00158693          	addi	a3,a1,1
    52000222:	87b2                	mv	a5,a2
    52000224:	03000513          	li	a0,48
    52000228:	96b2                	add	a3,a3,a2
    5200022a:	0785                	addi	a5,a5,1
    5200022c:	fea78fa3          	sb	a0,-1(a5)
    52000230:	fed79de3          	bne	a5,a3,5200022a <simple_itoa.part.0+0x6c>
    52000234:	0605                	addi	a2,a2,1
    52000236:	962e                	add	a2,a2,a1
    52000238:	00030763          	beqz	t1,52000246 <simple_itoa.part.0+0x88>
    5200023c:	02d00793          	li	a5,45
    52000240:	00f60023          	sb	a5,0(a2)
    52000244:	0605                	addi	a2,a2,1
    52000246:	40e6053b          	subw	a0,a2,a4
    5200024a:	00060023          	sb	zero,0(a2)
    5200024e:	0015589b          	srliw	a7,a0,0x1
    52000252:	02088863          	beqz	a7,52000282 <simple_itoa.part.0+0xc4>
    52000256:	fff7081b          	addiw	a6,a4,-1
    5200025a:	98ba                	add	a7,a7,a4
    5200025c:	00a8083b          	addw	a6,a6,a0
    52000260:	86ba                	mv	a3,a4
    52000262:	40d807bb          	subw	a5,a6,a3
    52000266:	1782                	slli	a5,a5,0x20
    52000268:	9381                	srli	a5,a5,0x20
    5200026a:	97ba                	add	a5,a5,a4
    5200026c:	0007c583          	lbu	a1,0(a5)
    52000270:	0006c603          	lbu	a2,0(a3)
    52000274:	0685                	addi	a3,a3,1
    52000276:	feb68fa3          	sb	a1,-1(a3)
    5200027a:	00c78023          	sb	a2,0(a5)
    5200027e:	ff1692e3          	bne	a3,a7,52000262 <simple_itoa.part.0+0xa4>
    52000282:	8082                	ret
    52000284:	4301                	li	t1,0
    52000286:	b791                	j	520001ca <simple_itoa.part.0+0xc>

0000000052000288 <my_itoa>:
    52000288:	0c055263          	bgez	a0,5200034c <my_itoa+0xc4>
    5200028c:	e2e1                	bnez	a3,5200034c <my_itoa+0xc4>
    5200028e:	40a00533          	neg	a0,a0
    52000292:	4305                	li	t1,1
    52000294:	06100893          	li	a7,97
    52000298:	c219                	beqz	a2,5200029e <my_itoa+0x16>
    5200029a:	04100893          	li	a7,65
    5200029e:	1582                	slli	a1,a1,0x20
    520002a0:	9181                	srli	a1,a1,0x20
    520002a2:	38d9                	addiw	a7,a7,-10
    520002a4:	863a                	mv	a2,a4
    520002a6:	4825                	li	a6,9
    520002a8:	a819                	j	520002be <my_itoa+0x36>
    520002aa:	0306869b          	addiw	a3,a3,48
    520002ae:	00d60023          	sb	a3,0(a2)
    520002b2:	0605                	addi	a2,a2,1
    520002b4:	02b556b3          	divu	a3,a0,a1
    520002b8:	02b56063          	bltu	a0,a1,520002d8 <my_itoa+0x50>
    520002bc:	8536                	mv	a0,a3
    520002be:	02b576b3          	remu	a3,a0,a1
    520002c2:	fed874e3          	bgeu	a6,a3,520002aa <my_itoa+0x22>
    520002c6:	00d886bb          	addw	a3,a7,a3
    520002ca:	00d60023          	sb	a3,0(a2)
    520002ce:	0605                	addi	a2,a2,1
    520002d0:	02b556b3          	divu	a3,a0,a1
    520002d4:	feb574e3          	bgeu	a0,a1,520002bc <my_itoa+0x34>
    520002d8:	40e606bb          	subw	a3,a2,a4
    520002dc:	02f6f463          	bgeu	a3,a5,52000304 <my_itoa+0x7c>
    520002e0:	fff7859b          	addiw	a1,a5,-1
    520002e4:	9d95                	subw	a1,a1,a3
    520002e6:	1582                	slli	a1,a1,0x20
    520002e8:	9181                	srli	a1,a1,0x20
    520002ea:	00158693          	addi	a3,a1,1
    520002ee:	87b2                	mv	a5,a2
    520002f0:	03000513          	li	a0,48
    520002f4:	96b2                	add	a3,a3,a2
    520002f6:	0785                	addi	a5,a5,1
    520002f8:	fea78fa3          	sb	a0,-1(a5)
    520002fc:	fed79de3          	bne	a5,a3,520002f6 <my_itoa+0x6e>
    52000300:	0605                	addi	a2,a2,1
    52000302:	962e                	add	a2,a2,a1
    52000304:	00030763          	beqz	t1,52000312 <my_itoa+0x8a>
    52000308:	02d00793          	li	a5,45
    5200030c:	00f60023          	sb	a5,0(a2)
    52000310:	0605                	addi	a2,a2,1
    52000312:	40e6053b          	subw	a0,a2,a4
    52000316:	00060023          	sb	zero,0(a2)
    5200031a:	fff5081b          	addiw	a6,a0,-1
    5200031e:	03005663          	blez	a6,5200034a <my_itoa+0xc2>
    52000322:	02081793          	slli	a5,a6,0x20
    52000326:	9381                	srli	a5,a5,0x20
    52000328:	4681                	li	a3,0
    5200032a:	97ba                	add	a5,a5,a4
    5200032c:	0007c583          	lbu	a1,0(a5)
    52000330:	00074603          	lbu	a2,0(a4)
    52000334:	2685                	addiw	a3,a3,1
    52000336:	00b70023          	sb	a1,0(a4)
    5200033a:	00c78023          	sb	a2,0(a5)
    5200033e:	40d8063b          	subw	a2,a6,a3
    52000342:	0705                	addi	a4,a4,1
    52000344:	17fd                	addi	a5,a5,-1
    52000346:	fec6c3e3          	blt	a3,a2,5200032c <my_itoa+0xa4>
    5200034a:	8082                	ret
    5200034c:	4301                	li	t1,0
    5200034e:	b799                	j	52000294 <my_itoa+0xc>

0000000052000350 <my_atoi>:
    52000350:	00054783          	lbu	a5,0(a0)
    52000354:	02000713          	li	a4,32
    52000358:	00e79763          	bne	a5,a4,52000366 <my_atoi+0x16>
    5200035c:	00154783          	lbu	a5,1(a0)
    52000360:	0505                	addi	a0,a0,1
    52000362:	fee78de3          	beq	a5,a4,5200035c <my_atoi+0xc>
    52000366:	02d00713          	li	a4,45
    5200036a:	06e78163          	beq	a5,a4,520003cc <my_atoi+0x7c>
    5200036e:	02b00713          	li	a4,43
    52000372:	4805                	li	a6,1
    52000374:	02e78f63          	beq	a5,a4,520003b2 <my_atoi+0x62>
    52000378:	00054603          	lbu	a2,0(a0)
    5200037c:	45a5                	li	a1,9
    5200037e:	4701                	li	a4,0
    52000380:	fd06069b          	addiw	a3,a2,-48
    52000384:	0ff6f793          	zext.b	a5,a3
    52000388:	04f5e063          	bltu	a1,a5,520003c8 <my_atoi+0x78>
    5200038c:	0027179b          	slliw	a5,a4,0x2
    52000390:	00154603          	lbu	a2,1(a0)
    52000394:	9fb9                	addw	a5,a5,a4
    52000396:	0017979b          	slliw	a5,a5,0x1
    5200039a:	00f6873b          	addw	a4,a3,a5
    5200039e:	fd06069b          	addiw	a3,a2,-48
    520003a2:	0ff6f793          	zext.b	a5,a3
    520003a6:	0505                	addi	a0,a0,1
    520003a8:	fef5f2e3          	bgeu	a1,a5,5200038c <my_atoi+0x3c>
    520003ac:	0307053b          	mulw	a0,a4,a6
    520003b0:	8082                	ret
    520003b2:	9542                	add	a0,a0,a6
    520003b4:	00054603          	lbu	a2,0(a0)
    520003b8:	45a5                	li	a1,9
    520003ba:	4701                	li	a4,0
    520003bc:	fd06069b          	addiw	a3,a2,-48
    520003c0:	0ff6f793          	zext.b	a5,a3
    520003c4:	fcf5f4e3          	bgeu	a1,a5,5200038c <my_atoi+0x3c>
    520003c8:	4501                	li	a0,0
    520003ca:	8082                	ret
    520003cc:	0505                	addi	a0,a0,1
    520003ce:	587d                	li	a6,-1
    520003d0:	b765                	j	52000378 <my_atoi+0x28>

00000000520003d2 <simple_itoa>:
    520003d2:	4841                	li	a6,16
    520003d4:	00b86363          	bltu	a6,a1,520003da <simple_itoa+0x8>
    520003d8:	b3dd                	j	520001be <simple_itoa.part.0>
    520003da:	4501                	li	a0,0
    520003dc:	8082                	ret

00000000520003de <print_value>:
    520003de:	715d                	addi	sp,sp,-80
    520003e0:	0038                	addi	a4,sp,8
    520003e2:	4781                	li	a5,0
    520003e4:	4681                	li	a3,0
    520003e6:	4601                	li	a2,0
    520003e8:	45a9                	li	a1,10
    520003ea:	e486                	sd	ra,72(sp)
    520003ec:	dd3ff0ef          	jal	520001be <simple_itoa.part.0>
    520003f0:	520007b7          	lui	a5,0x52000
    520003f4:	f0078793          	addi	a5,a5,-256 # 51ffff00 <_start-0x100>
    520003f8:	639c                	ld	a5,0(a5)
    520003fa:	0028                	addi	a0,sp,8
    520003fc:	4701                	li	a4,0
    520003fe:	4681                	li	a3,0
    52000400:	4601                	li	a2,0
    52000402:	4581                	li	a1,0
    52000404:	9782                	jalr	a5
    52000406:	60a6                	ld	ra,72(sp)
    52000408:	6161                	addi	sp,sp,80
    5200040a:	8082                	ret

000000005200040c <clear>:
    5200040c:	520007b7          	lui	a5,0x52000
    52000410:	f0078793          	addi	a5,a5,-256 # 51ffff00 <_start-0x100>
    52000414:	639c                	ld	a5,0(a5)
    52000416:	4701                	li	a4,0
    52000418:	4681                	li	a3,0
    5200041a:	4601                	li	a2,0
    5200041c:	4581                	li	a1,0
    5200041e:	00001517          	auipc	a0,0x1
    52000422:	88a50513          	addi	a0,a0,-1910 # 52000ca8 <print_scores+0xa4>
    52000426:	8782                	jr	a5

0000000052000428 <getchar>:
    52000428:	1101                	addi	sp,sp,-32
    5200042a:	e822                	sd	s0,16(sp)
    5200042c:	52000437          	lui	s0,0x52000
    52000430:	e426                	sd	s1,8(sp)
    52000432:	ec06                	sd	ra,24(sp)
    52000434:	f1040413          	addi	s0,s0,-240 # 51ffff10 <_start-0xf0>
    52000438:	54fd                	li	s1,-1
    5200043a:	601c                	ld	a5,0(s0)
    5200043c:	4701                	li	a4,0
    5200043e:	4681                	li	a3,0
    52000440:	4601                	li	a2,0
    52000442:	4581                	li	a1,0
    52000444:	4501                	li	a0,0
    52000446:	9782                	jalr	a5
    52000448:	2501                	sext.w	a0,a0
    5200044a:	fe9508e3          	beq	a0,s1,5200043a <getchar+0x12>
    5200044e:	60e2                	ld	ra,24(sp)
    52000450:	6442                	ld	s0,16(sp)
    52000452:	64a2                	ld	s1,8(sp)
    52000454:	6105                	addi	sp,sp,32
    52000456:	8082                	ret

0000000052000458 <rand>:
    52000458:	4a891537          	lui	a0,0x4a891
    5200045c:	e1b50513          	addi	a0,a0,-485 # 4a890e1b <_start-0x776f1e5>
    52000460:	8082                	ret

0000000052000462 <nSpaces>:
    52000462:	4725                	li	a4,9
    52000464:	87aa                	mv	a5,a0
    52000466:	02a75663          	bge	a4,a0,52000492 <nSpaces+0x30>
    5200046a:	06300713          	li	a4,99
    5200046e:	4519                	li	a0,6
    52000470:	02f75263          	bge	a4,a5,52000494 <nSpaces+0x32>
    52000474:	3e700713          	li	a4,999
    52000478:	4515                	li	a0,5
    5200047a:	00f75d63          	bge	a4,a5,52000494 <nSpaces+0x32>
    5200047e:	6709                	lui	a4,0x2
    52000480:	70f70713          	addi	a4,a4,1807 # 270f <_start-0x51ffd8f1>
    52000484:	00f727b3          	slt	a5,a4,a5
    52000488:	0017b793          	seqz	a5,a5
    5200048c:	0027951b          	slliw	a0,a5,0x2
    52000490:	8082                	ret
    52000492:	451d                	li	a0,7
    52000494:	8082                	ret

0000000052000496 <printSpaces>:
    52000496:	04a05063          	blez	a0,520004d6 <printSpaces+0x40>
    5200049a:	1101                	addi	sp,sp,-32
    5200049c:	e426                	sd	s1,8(sp)
    5200049e:	520004b7          	lui	s1,0x52000
    520004a2:	e822                	sd	s0,16(sp)
    520004a4:	e04a                	sd	s2,0(sp)
    520004a6:	ec06                	sd	ra,24(sp)
    520004a8:	892a                	mv	s2,a0
    520004aa:	f0048493          	addi	s1,s1,-256 # 51ffff00 <_start-0x100>
    520004ae:	4401                	li	s0,0
    520004b0:	609c                	ld	a5,0(s1)
    520004b2:	4701                	li	a4,0
    520004b4:	4681                	li	a3,0
    520004b6:	4601                	li	a2,0
    520004b8:	4581                	li	a1,0
    520004ba:	00000517          	auipc	a0,0x0
    520004be:	7fe50513          	addi	a0,a0,2046 # 52000cb8 <print_scores+0xb4>
    520004c2:	2405                	addiw	s0,s0,1
    520004c4:	9782                	jalr	a5
    520004c6:	fe8915e3          	bne	s2,s0,520004b0 <printSpaces+0x1a>
    520004ca:	60e2                	ld	ra,24(sp)
    520004cc:	6442                	ld	s0,16(sp)
    520004ce:	64a2                	ld	s1,8(sp)
    520004d0:	6902                	ld	s2,0(sp)
    520004d2:	6105                	addi	sp,sp,32
    520004d4:	8082                	ret
    520004d6:	8082                	ret

00000000520004d8 <pickColor>:
    520004d8:	1101                	addi	sp,sp,-32
    520004da:	ec06                	sd	ra,24(sp)
    520004dc:	577d                	li	a4,-1
    520004de:	87aa                	mv	a5,a0
    520004e0:	0ee50263          	beq	a0,a4,520005c4 <pickColor+0xec>
    520004e4:	cd0d                	beqz	a0,5200051e <pickColor+0x46>
    520004e6:	4709                	li	a4,2
    520004e8:	0ae50e63          	beq	a0,a4,520005a4 <pickColor+0xcc>
    520004ec:	4711                	li	a4,4
    520004ee:	08e50b63          	beq	a0,a4,52000584 <pickColor+0xac>
    520004f2:	4721                	li	a4,8
    520004f4:	06e50863          	beq	a0,a4,52000564 <pickColor+0x8c>
    520004f8:	4741                	li	a4,16
    520004fa:	10e51863          	bne	a0,a4,5200060a <pickColor+0x132>
    520004fe:	520007b7          	lui	a5,0x52000
    52000502:	f0078793          	addi	a5,a5,-256 # 51ffff00 <_start-0x100>
    52000506:	60e2                	ld	ra,24(sp)
    52000508:	639c                	ld	a5,0(a5)
    5200050a:	4701                	li	a4,0
    5200050c:	4681                	li	a3,0
    5200050e:	4601                	li	a2,0
    52000510:	4581                	li	a1,0
    52000512:	00000517          	auipc	a0,0x0
    52000516:	7f650513          	addi	a0,a0,2038 # 52000d08 <print_scores+0x104>
    5200051a:	6105                	addi	sp,sp,32
    5200051c:	8782                	jr	a5
    5200051e:	52000737          	lui	a4,0x52000
    52000522:	f0073803          	ld	a6,-256(a4) # 51ffff00 <_start-0x100>
    52000526:	e42a                	sd	a0,8(sp)
    52000528:	4701                	li	a4,0
    5200052a:	4681                	li	a3,0
    5200052c:	4601                	li	a2,0
    5200052e:	4581                	li	a1,0
    52000530:	00000517          	auipc	a0,0x0
    52000534:	7a050513          	addi	a0,a0,1952 # 52000cd0 <print_scores+0xcc>
    52000538:	9802                	jalr	a6
    5200053a:	67a2                	ld	a5,8(sp)
    5200053c:	8007879b          	addiw	a5,a5,-2048
    52000540:	10079d63          	bnez	a5,5200065a <pickColor+0x182>
    52000544:	520007b7          	lui	a5,0x52000
    52000548:	f0078793          	addi	a5,a5,-256 # 51ffff00 <_start-0x100>
    5200054c:	60e2                	ld	ra,24(sp)
    5200054e:	639c                	ld	a5,0(a5)
    52000550:	4701                	li	a4,0
    52000552:	4681                	li	a3,0
    52000554:	4601                	li	a2,0
    52000556:	4581                	li	a1,0
    52000558:	00001517          	auipc	a0,0x1
    5200055c:	82050513          	addi	a0,a0,-2016 # 52000d78 <print_scores+0x174>
    52000560:	6105                	addi	sp,sp,32
    52000562:	8782                	jr	a5
    52000564:	520007b7          	lui	a5,0x52000
    52000568:	f0078793          	addi	a5,a5,-256 # 51ffff00 <_start-0x100>
    5200056c:	60e2                	ld	ra,24(sp)
    5200056e:	639c                	ld	a5,0(a5)
    52000570:	4701                	li	a4,0
    52000572:	4681                	li	a3,0
    52000574:	4601                	li	a2,0
    52000576:	4581                	li	a1,0
    52000578:	00000517          	auipc	a0,0x0
    5200057c:	78050513          	addi	a0,a0,1920 # 52000cf8 <print_scores+0xf4>
    52000580:	6105                	addi	sp,sp,32
    52000582:	8782                	jr	a5
    52000584:	520007b7          	lui	a5,0x52000
    52000588:	f0078793          	addi	a5,a5,-256 # 51ffff00 <_start-0x100>
    5200058c:	60e2                	ld	ra,24(sp)
    5200058e:	639c                	ld	a5,0(a5)
    52000590:	4701                	li	a4,0
    52000592:	4681                	li	a3,0
    52000594:	4601                	li	a2,0
    52000596:	4581                	li	a1,0
    52000598:	00000517          	auipc	a0,0x0
    5200059c:	75050513          	addi	a0,a0,1872 # 52000ce8 <print_scores+0xe4>
    520005a0:	6105                	addi	sp,sp,32
    520005a2:	8782                	jr	a5
    520005a4:	520007b7          	lui	a5,0x52000
    520005a8:	f0078793          	addi	a5,a5,-256 # 51ffff00 <_start-0x100>
    520005ac:	60e2                	ld	ra,24(sp)
    520005ae:	639c                	ld	a5,0(a5)
    520005b0:	4701                	li	a4,0
    520005b2:	4681                	li	a3,0
    520005b4:	4601                	li	a2,0
    520005b6:	4581                	li	a1,0
    520005b8:	00000517          	auipc	a0,0x0
    520005bc:	72050513          	addi	a0,a0,1824 # 52000cd8 <print_scores+0xd4>
    520005c0:	6105                	addi	sp,sp,32
    520005c2:	8782                	jr	a5
    520005c4:	52000737          	lui	a4,0x52000
    520005c8:	f0073803          	ld	a6,-256(a4) # 51ffff00 <_start-0x100>
    520005cc:	e42a                	sd	a0,8(sp)
    520005ce:	4701                	li	a4,0
    520005d0:	4681                	li	a3,0
    520005d2:	4601                	li	a2,0
    520005d4:	4581                	li	a1,0
    520005d6:	00000517          	auipc	a0,0x0
    520005da:	6ea50513          	addi	a0,a0,1770 # 52000cc0 <print_scores+0xbc>
    520005de:	9802                	jalr	a6
    520005e0:	67a2                	ld	a5,8(sp)
    520005e2:	08000713          	li	a4,128
    520005e6:	06e79d63          	bne	a5,a4,52000660 <pickColor+0x188>
    520005ea:	520007b7          	lui	a5,0x52000
    520005ee:	f0078793          	addi	a5,a5,-256 # 51ffff00 <_start-0x100>
    520005f2:	60e2                	ld	ra,24(sp)
    520005f4:	639c                	ld	a5,0(a5)
    520005f6:	4701                	li	a4,0
    520005f8:	4681                	li	a3,0
    520005fa:	4601                	li	a2,0
    520005fc:	4581                	li	a1,0
    520005fe:	00000517          	auipc	a0,0x0
    52000602:	73a50513          	addi	a0,a0,1850 # 52000d38 <print_scores+0x134>
    52000606:	6105                	addi	sp,sp,32
    52000608:	8782                	jr	a5
    5200060a:	02000713          	li	a4,32
    5200060e:	02e51263          	bne	a0,a4,52000632 <pickColor+0x15a>
    52000612:	520007b7          	lui	a5,0x52000
    52000616:	f0078793          	addi	a5,a5,-256 # 51ffff00 <_start-0x100>
    5200061a:	60e2                	ld	ra,24(sp)
    5200061c:	639c                	ld	a5,0(a5)
    5200061e:	4701                	li	a4,0
    52000620:	4681                	li	a3,0
    52000622:	4601                	li	a2,0
    52000624:	4581                	li	a1,0
    52000626:	00000517          	auipc	a0,0x0
    5200062a:	6f250513          	addi	a0,a0,1778 # 52000d18 <print_scores+0x114>
    5200062e:	6105                	addi	sp,sp,32
    52000630:	8782                	jr	a5
    52000632:	04000713          	li	a4,64
    52000636:	fae516e3          	bne	a0,a4,520005e2 <pickColor+0x10a>
    5200063a:	520007b7          	lui	a5,0x52000
    5200063e:	f0078793          	addi	a5,a5,-256 # 51ffff00 <_start-0x100>
    52000642:	60e2                	ld	ra,24(sp)
    52000644:	639c                	ld	a5,0(a5)
    52000646:	4701                	li	a4,0
    52000648:	4681                	li	a3,0
    5200064a:	4601                	li	a2,0
    5200064c:	4581                	li	a1,0
    5200064e:	00000517          	auipc	a0,0x0
    52000652:	6da50513          	addi	a0,a0,1754 # 52000d28 <print_scores+0x124>
    52000656:	6105                	addi	sp,sp,32
    52000658:	8782                	jr	a5
    5200065a:	60e2                	ld	ra,24(sp)
    5200065c:	6105                	addi	sp,sp,32
    5200065e:	8082                	ret
    52000660:	10000713          	li	a4,256
    52000664:	02e79263          	bne	a5,a4,52000688 <pickColor+0x1b0>
    52000668:	520007b7          	lui	a5,0x52000
    5200066c:	f0078793          	addi	a5,a5,-256 # 51ffff00 <_start-0x100>
    52000670:	60e2                	ld	ra,24(sp)
    52000672:	639c                	ld	a5,0(a5)
    52000674:	4701                	li	a4,0
    52000676:	4681                	li	a3,0
    52000678:	4601                	li	a2,0
    5200067a:	4581                	li	a1,0
    5200067c:	00000517          	auipc	a0,0x0
    52000680:	6cc50513          	addi	a0,a0,1740 # 52000d48 <print_scores+0x144>
    52000684:	6105                	addi	sp,sp,32
    52000686:	8782                	jr	a5
    52000688:	20000713          	li	a4,512
    5200068c:	02e79263          	bne	a5,a4,520006b0 <pickColor+0x1d8>
    52000690:	520007b7          	lui	a5,0x52000
    52000694:	f0078793          	addi	a5,a5,-256 # 51ffff00 <_start-0x100>
    52000698:	60e2                	ld	ra,24(sp)
    5200069a:	639c                	ld	a5,0(a5)
    5200069c:	4701                	li	a4,0
    5200069e:	4681                	li	a3,0
    520006a0:	4601                	li	a2,0
    520006a2:	4581                	li	a1,0
    520006a4:	00000517          	auipc	a0,0x0
    520006a8:	6b450513          	addi	a0,a0,1716 # 52000d58 <print_scores+0x154>
    520006ac:	6105                	addi	sp,sp,32
    520006ae:	8782                	jr	a5
    520006b0:	40000713          	li	a4,1024
    520006b4:	e8e794e3          	bne	a5,a4,5200053c <pickColor+0x64>
    520006b8:	520007b7          	lui	a5,0x52000
    520006bc:	f0078793          	addi	a5,a5,-256 # 51ffff00 <_start-0x100>
    520006c0:	60e2                	ld	ra,24(sp)
    520006c2:	639c                	ld	a5,0(a5)
    520006c4:	4701                	li	a4,0
    520006c6:	4681                	li	a3,0
    520006c8:	4601                	li	a2,0
    520006ca:	4581                	li	a1,0
    520006cc:	00000517          	auipc	a0,0x0
    520006d0:	69c50513          	addi	a0,a0,1692 # 52000d68 <print_scores+0x164>
    520006d4:	6105                	addi	sp,sp,32
    520006d6:	8782                	jr	a5

00000000520006d8 <print>:
    520006d8:	7175                	addi	sp,sp,-144
    520006da:	fca6                	sd	s1,120(sp)
    520006dc:	520004b7          	lui	s1,0x52000
    520006e0:	f004b783          	ld	a5,-256(s1) # 51ffff00 <_start-0x100>
    520006e4:	f0d2                	sd	s4,96(sp)
    520006e6:	e8da                	sd	s6,80(sp)
    520006e8:	e4de                	sd	s7,72(sp)
    520006ea:	e506                	sd	ra,136(sp)
    520006ec:	e122                	sd	s0,128(sp)
    520006ee:	f8ca                	sd	s2,112(sp)
    520006f0:	f4ce                	sd	s3,104(sp)
    520006f2:	ecd6                	sd	s5,88(sp)
    520006f4:	4701                	li	a4,0
    520006f6:	4681                	li	a3,0
    520006f8:	4601                	li	a2,0
    520006fa:	4581                	li	a1,0
    520006fc:	01050a13          	addi	s4,a0,16
    52000700:	05050b13          	addi	s6,a0,80
    52000704:	00000517          	auipc	a0,0x0
    52000708:	68450513          	addi	a0,a0,1668 # 52000d88 <print_scores+0x184>
    5200070c:	f0048493          	addi	s1,s1,-256
    52000710:	9782                	jalr	a5
    52000712:	4ba5                	li	s7,9
    52000714:	ff0a0913          	addi	s2,s4,-16
    52000718:	06300a93          	li	s5,99
    5200071c:	609c                	ld	a5,0(s1)
    5200071e:	4701                	li	a4,0
    52000720:	4681                	li	a3,0
    52000722:	4601                	li	a2,0
    52000724:	4581                	li	a1,0
    52000726:	00000517          	auipc	a0,0x0
    5200072a:	59250513          	addi	a0,a0,1426 # 52000cb8 <print_scores+0xb4>
    5200072e:	9782                	jalr	a5
    52000730:	00092503          	lw	a0,0(s2)
    52000734:	4421                	li	s0,8
    52000736:	da3ff0ef          	jal	520004d8 <pickColor>
    5200073a:	00092503          	lw	a0,0(s2)
    5200073e:	e13d                	bnez	a0,520007a4 <print+0xcc>
    52000740:	609c                	ld	a5,0(s1)
    52000742:	4701                	li	a4,0
    52000744:	4681                	li	a3,0
    52000746:	4601                	li	a2,0
    52000748:	4581                	li	a1,0
    5200074a:	00000517          	auipc	a0,0x0
    5200074e:	56e50513          	addi	a0,a0,1390 # 52000cb8 <print_scores+0xb4>
    52000752:	347d                	addiw	s0,s0,-1
    52000754:	9782                	jalr	a5
    52000756:	f46d                	bnez	s0,52000740 <print+0x68>
    52000758:	609c                	ld	a5,0(s1)
    5200075a:	4701                	li	a4,0
    5200075c:	4681                	li	a3,0
    5200075e:	4601                	li	a2,0
    52000760:	4581                	li	a1,0
    52000762:	00000517          	auipc	a0,0x0
    52000766:	55e50513          	addi	a0,a0,1374 # 52000cc0 <print_scores+0xbc>
    5200076a:	0911                	addi	s2,s2,4
    5200076c:	9782                	jalr	a5
    5200076e:	fb4917e3          	bne	s2,s4,5200071c <print+0x44>
    52000772:	609c                	ld	a5,0(s1)
    52000774:	4701                	li	a4,0
    52000776:	4681                	li	a3,0
    52000778:	4601                	li	a2,0
    5200077a:	4581                	li	a1,0
    5200077c:	00000517          	auipc	a0,0x0
    52000780:	60c50513          	addi	a0,a0,1548 # 52000d88 <print_scores+0x184>
    52000784:	01090a13          	addi	s4,s2,16
    52000788:	9782                	jalr	a5
    5200078a:	f96a15e3          	bne	s4,s6,52000714 <print+0x3c>
    5200078e:	60aa                	ld	ra,136(sp)
    52000790:	640a                	ld	s0,128(sp)
    52000792:	74e6                	ld	s1,120(sp)
    52000794:	7946                	ld	s2,112(sp)
    52000796:	79a6                	ld	s3,104(sp)
    52000798:	7a06                	ld	s4,96(sp)
    5200079a:	6ae6                	ld	s5,88(sp)
    5200079c:	6b46                	ld	s6,80(sp)
    5200079e:	6ba6                	ld	s7,72(sp)
    520007a0:	6149                	addi	sp,sp,144
    520007a2:	8082                	ret
    520007a4:	4781                	li	a5,0
    520007a6:	00810733          	add	a4,sp,s0
    520007aa:	4681                	li	a3,0
    520007ac:	4601                	li	a2,0
    520007ae:	45a9                	li	a1,10
    520007b0:	a0fff0ef          	jal	520001be <simple_itoa.part.0>
    520007b4:	609c                	ld	a5,0(s1)
    520007b6:	00810533          	add	a0,sp,s0
    520007ba:	4701                	li	a4,0
    520007bc:	4681                	li	a3,0
    520007be:	4601                	li	a2,0
    520007c0:	4581                	li	a1,0
    520007c2:	9782                	jalr	a5
    520007c4:	00092783          	lw	a5,0(s2)
    520007c8:	02fbdd63          	bge	s7,a5,52000802 <print+0x12a>
    520007cc:	02fadd63          	bge	s5,a5,52000806 <print+0x12e>
    520007d0:	3e700713          	li	a4,999
    520007d4:	02f75b63          	bge	a4,a5,5200080a <print+0x132>
    520007d8:	6709                	lui	a4,0x2
    520007da:	70f70713          	addi	a4,a4,1807 # 270f <_start-0x51ffd8f1>
    520007de:	4991                	li	s3,4
    520007e0:	f6f74ce3          	blt	a4,a5,52000758 <print+0x80>
    520007e4:	4401                	li	s0,0
    520007e6:	609c                	ld	a5,0(s1)
    520007e8:	4701                	li	a4,0
    520007ea:	4681                	li	a3,0
    520007ec:	4601                	li	a2,0
    520007ee:	4581                	li	a1,0
    520007f0:	00000517          	auipc	a0,0x0
    520007f4:	4c850513          	addi	a0,a0,1224 # 52000cb8 <print_scores+0xb4>
    520007f8:	2405                	addiw	s0,s0,1
    520007fa:	9782                	jalr	a5
    520007fc:	fe8995e3          	bne	s3,s0,520007e6 <print+0x10e>
    52000800:	bfa1                	j	52000758 <print+0x80>
    52000802:	499d                	li	s3,7
    52000804:	b7c5                	j	520007e4 <print+0x10c>
    52000806:	4999                	li	s3,6
    52000808:	bff1                	j	520007e4 <print+0x10c>
    5200080a:	4995                	li	s3,5
    5200080c:	bfe1                	j	520007e4 <print+0x10c>

000000005200080e <countEmpty>:
    5200080e:	872a                	mv	a4,a0
    52000810:	05050613          	addi	a2,a0,80
    52000814:	4501                	li	a0,0
    52000816:	ff070793          	addi	a5,a4,-16
    5200081a:	4394                	lw	a3,0(a5)
    5200081c:	0791                	addi	a5,a5,4
    5200081e:	e291                	bnez	a3,52000822 <countEmpty+0x14>
    52000820:	2505                	addiw	a0,a0,1
    52000822:	fef71ce3          	bne	a4,a5,5200081a <countEmpty+0xc>
    52000826:	0741                	addi	a4,a4,16
    52000828:	fee617e3          	bne	a2,a4,52000816 <countEmpty+0x8>
    5200082c:	8082                	ret

000000005200082e <add>:
    5200082e:	882a                	mv	a6,a0
    52000830:	05050893          	addi	a7,a0,80
    52000834:	872a                	mv	a4,a0
    52000836:	4601                	li	a2,0
    52000838:	ff070793          	addi	a5,a4,-16
    5200083c:	4394                	lw	a3,0(a5)
    5200083e:	0791                	addi	a5,a5,4
    52000840:	e291                	bnez	a3,52000844 <add+0x16>
    52000842:	2605                	addiw	a2,a2,1
    52000844:	fef71ce3          	bne	a4,a5,5200083c <add+0xe>
    52000848:	0741                	addi	a4,a4,16
    5200084a:	ff1717e3          	bne	a4,a7,52000838 <add+0xa>
    5200084e:	4a891337          	lui	t1,0x4a891
    52000852:	e1b3031b          	addiw	t1,t1,-485 # 4a890e1b <_start-0x776f1e5>
    52000856:	02c3633b          	remw	t1,t1,a2
    5200085a:	04050513          	addi	a0,a0,64
    5200085e:	4601                	li	a2,0
    52000860:	4891                	li	a7,4
    52000862:	8742                	mv	a4,a6
    52000864:	4781                	li	a5,0
    52000866:	4314                	lw	a3,0(a4)
    52000868:	e681                	bnez	a3,52000870 <add+0x42>
    5200086a:	00c30b63          	beq	t1,a2,52000880 <add+0x52>
    5200086e:	2605                	addiw	a2,a2,1
    52000870:	2785                	addiw	a5,a5,1
    52000872:	0711                	addi	a4,a4,4
    52000874:	ff1799e3          	bne	a5,a7,52000866 <add+0x38>
    52000878:	0841                	addi	a6,a6,16
    5200087a:	fea814e3          	bne	a6,a0,52000862 <add+0x34>
    5200087e:	8082                	ret
    52000880:	078a                	slli	a5,a5,0x2
    52000882:	97c2                	add	a5,a5,a6
    52000884:	c38c                	sw	a1,0(a5)
    52000886:	8082                	ret

0000000052000888 <move>:
    52000888:	8faa                	mv	t6,a0
    5200088a:	04050393          	addi	t2,a0,64
    5200088e:	4e81                	li	t4,0
    52000890:	4281                	li	t0,0
    52000892:	4891                	li	a7,4
    52000894:	4e01                	li	t3,0
    52000896:	4f05                	li	t5,1
    52000898:	002f1713          	slli	a4,t5,0x2
    5200089c:	002e1813          	slli	a6,t3,0x2
    520008a0:	977e                	add	a4,a4,t6
    520008a2:	987e                	add	a6,a6,t6
    520008a4:	867a                	mv	a2,t5
    520008a6:	00082683          	lw	a3,0(a6)
    520008aa:	431c                	lw	a5,0(a4)
    520008ac:	c2ad                	beqz	a3,5200090e <move+0x86>
    520008ae:	01c7e5b3          	or	a1,a5,t3
    520008b2:	2581                	sext.w	a1,a1
    520008b4:	40f68333          	sub	t1,a3,a5
    520008b8:	00f68363          	beq	a3,a5,520008be <move+0x36>
    520008bc:	eb89                	bnez	a5,520008ce <move+0x46>
    520008be:	00031363          	bnez	t1,520008c4 <move+0x3c>
    520008c2:	ef89                	bnez	a5,520008dc <move+0x54>
    520008c4:	cda1                	beqz	a1,5200091c <move+0x94>
    520008c6:	2605                	addiw	a2,a2,1
    520008c8:	0711                	addi	a4,a4,4
    520008ca:	fd161ee3          	bne	a2,a7,520008a6 <move+0x1e>
    520008ce:	001f079b          	addiw	a5,t5,1
    520008d2:	03178763          	beq	a5,a7,52000900 <move+0x78>
    520008d6:	8e7a                	mv	t3,t5
    520008d8:	8f3e                	mv	t5,a5
    520008da:	bf7d                	j	52000898 <move+0x10>
    520008dc:	0016969b          	slliw	a3,a3,0x1
    520008e0:	00261793          	slli	a5,a2,0x2
    520008e4:	00d82023          	sw	a3,0(a6)
    520008e8:	97fe                	add	a5,a5,t6
    520008ea:	0007a023          	sw	zero,0(a5)
    520008ee:	00082783          	lw	a5,0(a6)
    520008f2:	4e85                	li	t4,1
    520008f4:	005782bb          	addw	t0,a5,t0
    520008f8:	001f079b          	addiw	a5,t5,1
    520008fc:	fd179de3          	bne	a5,a7,520008d6 <move+0x4e>
    52000900:	0fc1                	addi	t6,t6,16
    52000902:	f9f399e3          	bne	t2,t6,52000894 <move+0xc>
    52000906:	060e9e63          	bnez	t4,52000982 <move+0xfa>
    5200090a:	8516                	mv	a0,t0
    5200090c:	8082                	ret
    5200090e:	dfc5                	beqz	a5,520008c6 <move+0x3e>
    52000910:	00f82023          	sw	a5,0(a6)
    52000914:	00072023          	sw	zero,0(a4)
    52000918:	4e85                	li	t4,1
    5200091a:	b775                	j	520008c6 <move+0x3e>
    5200091c:	008fa783          	lw	a5,8(t6)
    52000920:	00cfa703          	lw	a4,12(t6)
    52000924:	00e78b63          	beq	a5,a4,5200093a <move+0xb2>
    52000928:	02f68563          	beq	a3,a5,52000952 <move+0xca>
    5200092c:	e399                	bnez	a5,52000932 <move+0xaa>
    5200092e:	02e68e63          	beq	a3,a4,5200096a <move+0xe2>
    52000932:	4e85                	li	t4,1
    52000934:	8f76                	mv	t5,t4
    52000936:	4789                	li	a5,2
    52000938:	bf79                	j	520008d6 <move+0x4e>
    5200093a:	0017979b          	slliw	a5,a5,0x1
    5200093e:	4e85                	li	t4,1
    52000940:	00ffa423          	sw	a5,8(t6)
    52000944:	005782bb          	addw	t0,a5,t0
    52000948:	000fa623          	sw	zero,12(t6)
    5200094c:	8f76                	mv	t5,t4
    5200094e:	4789                	li	a5,2
    52000950:	b759                	j	520008d6 <move+0x4e>
    52000952:	0016969b          	slliw	a3,a3,0x1
    52000956:	4e85                	li	t4,1
    52000958:	00dfa023          	sw	a3,0(t6)
    5200095c:	005682bb          	addw	t0,a3,t0
    52000960:	000fa423          	sw	zero,8(t6)
    52000964:	8f76                	mv	t5,t4
    52000966:	4789                	li	a5,2
    52000968:	b7bd                	j	520008d6 <move+0x4e>
    5200096a:	0016969b          	slliw	a3,a3,0x1
    5200096e:	4e85                	li	t4,1
    52000970:	00dfa023          	sw	a3,0(t6)
    52000974:	005682bb          	addw	t0,a3,t0
    52000978:	000fa623          	sw	zero,12(t6)
    5200097c:	8f76                	mv	t5,t4
    5200097e:	4789                	li	a5,2
    52000980:	bf99                	j	520008d6 <move+0x4e>
    52000982:	1101                	addi	sp,sp,-32
    52000984:	4589                	li	a1,2
    52000986:	ec06                	sd	ra,24(sp)
    52000988:	e416                	sd	t0,8(sp)
    5200098a:	ea5ff0ef          	jal	5200082e <add>
    5200098e:	62a2                	ld	t0,8(sp)
    52000990:	60e2                	ld	ra,24(sp)
    52000992:	8516                	mv	a0,t0
    52000994:	6105                	addi	sp,sp,32
    52000996:	8082                	ret

0000000052000998 <rotate>:
    52000998:	04a05c63          	blez	a0,520009f0 <rotate+0x58>
    5200099c:	4e01                	li	t3,0
    5200099e:	03058313          	addi	t1,a1,48
    520009a2:	862e                	mv	a2,a1
    520009a4:	00c58693          	addi	a3,a1,12
    520009a8:	03c58793          	addi	a5,a1,60
    520009ac:	871a                	mv	a4,t1
    520009ae:	0006a883          	lw	a7,0(a3)
    520009b2:	00062803          	lw	a6,0(a2)
    520009b6:	17f1                	addi	a5,a5,-4
    520009b8:	01162023          	sw	a7,0(a2)
    520009bc:	0047a883          	lw	a7,4(a5)
    520009c0:	0611                	addi	a2,a2,4
    520009c2:	06c1                	addi	a3,a3,16
    520009c4:	ff16a823          	sw	a7,-16(a3)
    520009c8:	00072883          	lw	a7,0(a4)
    520009cc:	1741                	addi	a4,a4,-16
    520009ce:	0117a223          	sw	a7,4(a5)
    520009d2:	01072823          	sw	a6,16(a4)
    520009d6:	fcf31ce3          	bne	t1,a5,520009ae <rotate+0x16>
    520009da:	49d0                	lw	a2,20(a1)
    520009dc:	51d4                	lw	a3,36(a1)
    520009de:	5598                	lw	a4,40(a1)
    520009e0:	4d9c                	lw	a5,24(a1)
    520009e2:	2e05                	addiw	t3,t3,1
    520009e4:	d1d0                	sw	a2,36(a1)
    520009e6:	d594                	sw	a3,40(a1)
    520009e8:	cd98                	sw	a4,24(a1)
    520009ea:	c9dc                	sw	a5,20(a1)
    520009ec:	fbc51be3          	bne	a0,t3,520009a2 <rotate+0xa>
    520009f0:	8082                	ret

00000000520009f2 <onKeyPress>:
    520009f2:	fbf5079b          	addiw	a5,a0,-65
    520009f6:	0ff7f793          	zext.b	a5,a5
    520009fa:	03600713          	li	a4,54
    520009fe:	08f76963          	bltu	a4,a5,52000a90 <onKeyPress+0x9e>
    52000a02:	00000717          	auipc	a4,0x0
    52000a06:	52270713          	addi	a4,a4,1314 # 52000f24 <print_scores+0x320>
    52000a0a:	078a                	slli	a5,a5,0x2
    52000a0c:	97ba                	add	a5,a5,a4
    52000a0e:	439c                	lw	a5,0(a5)
    52000a10:	1101                	addi	sp,sp,-32
    52000a12:	ec06                	sd	ra,24(sp)
    52000a14:	97ba                	add	a5,a5,a4
    52000a16:	8782                	jr	a5
    52000a18:	852e                	mv	a0,a1
    52000a1a:	e032                	sd	a2,0(sp)
    52000a1c:	e6dff0ef          	jal	52000888 <move>
    52000a20:	6602                	ld	a2,0(sp)
    52000a22:	421c                	lw	a5,0(a2)
    52000a24:	9fa9                	addw	a5,a5,a0
    52000a26:	c21c                	sw	a5,0(a2)
    52000a28:	4501                	li	a0,0
    52000a2a:	60e2                	ld	ra,24(sp)
    52000a2c:	6105                	addi	sp,sp,32
    52000a2e:	8082                	ret
    52000a30:	4505                	li	a0,1
    52000a32:	e02e                	sd	a1,0(sp)
    52000a34:	f65ff0ef          	jal	52000998 <rotate>
    52000a38:	6502                	ld	a0,0(sp)
    52000a3a:	e4fff0ef          	jal	52000888 <move>
    52000a3e:	6582                	ld	a1,0(sp)
    52000a40:	450d                	li	a0,3
    52000a42:	f57ff0ef          	jal	52000998 <rotate>
    52000a46:	b7cd                	j	52000a28 <onKeyPress+0x36>
    52000a48:	4509                	li	a0,2
    52000a4a:	e432                	sd	a2,8(sp)
    52000a4c:	e02e                	sd	a1,0(sp)
    52000a4e:	f4bff0ef          	jal	52000998 <rotate>
    52000a52:	6502                	ld	a0,0(sp)
    52000a54:	e35ff0ef          	jal	52000888 <move>
    52000a58:	6622                	ld	a2,8(sp)
    52000a5a:	6582                	ld	a1,0(sp)
    52000a5c:	421c                	lw	a5,0(a2)
    52000a5e:	9fa9                	addw	a5,a5,a0
    52000a60:	c21c                	sw	a5,0(a2)
    52000a62:	4509                	li	a0,2
    52000a64:	f35ff0ef          	jal	52000998 <rotate>
    52000a68:	b7c1                	j	52000a28 <onKeyPress+0x36>
    52000a6a:	450d                	li	a0,3
    52000a6c:	e432                	sd	a2,8(sp)
    52000a6e:	e02e                	sd	a1,0(sp)
    52000a70:	f29ff0ef          	jal	52000998 <rotate>
    52000a74:	6502                	ld	a0,0(sp)
    52000a76:	e13ff0ef          	jal	52000888 <move>
    52000a7a:	6622                	ld	a2,8(sp)
    52000a7c:	6582                	ld	a1,0(sp)
    52000a7e:	421c                	lw	a5,0(a2)
    52000a80:	9fa9                	addw	a5,a5,a0
    52000a82:	c21c                	sw	a5,0(a2)
    52000a84:	4505                	li	a0,1
    52000a86:	f13ff0ef          	jal	52000998 <rotate>
    52000a8a:	bf79                	j	52000a28 <onKeyPress+0x36>
    52000a8c:	450d                	li	a0,3
    52000a8e:	bf71                	j	52000a2a <onKeyPress+0x38>
    52000a90:	4501                	li	a0,0
    52000a92:	8082                	ret
    52000a94:	4509                	li	a0,2
    52000a96:	bf51                	j	52000a2a <onKeyPress+0x38>

0000000052000a98 <check>:
    52000a98:	8e2a                	mv	t3,a0
    52000a9a:	4881                	li	a7,0
    52000a9c:	4601                	li	a2,0
    52000a9e:	4311                	li	t1,4
    52000aa0:	4e8d                	li	t4,3
    52000aa2:	85f2                	mv	a1,t3
    52000aa4:	8772                	mv	a4,t3
    52000aa6:	4781                	li	a5,0
    52000aa8:	4314                	lw	a3,0(a4)
    52000aaa:	8006881b          	addiw	a6,a3,-2048
    52000aae:	00080e63          	beqz	a6,52000aca <check+0x32>
    52000ab2:	c239                	beqz	a2,52000af8 <check+0x60>
    52000ab4:	0785                	addi	a5,a5,1
    52000ab6:	4605                	li	a2,1
    52000ab8:	06678963          	beq	a5,t1,52000b2a <check+0x92>
    52000abc:	4354                	lw	a3,4(a4)
    52000abe:	0711                	addi	a4,a4,4
    52000ac0:	0591                	addi	a1,a1,4
    52000ac2:	8006881b          	addiw	a6,a3,-2048
    52000ac6:	fe0816e3          	bnez	a6,52000ab2 <check+0x1a>
    52000aca:	567d                	li	a2,-1
    52000acc:	8532                	mv	a0,a2
    52000ace:	8082                	ret
    52000ad0:	0007861b          	sext.w	a2,a5
    52000ad4:	09160f63          	beq	a2,a7,52000b72 <check+0xda>
    52000ad8:	00472803          	lw	a6,4(a4)
    52000adc:	04d80c63          	beq	a6,a3,52000b34 <check+0x9c>
    52000ae0:	ff05a803          	lw	a6,-16(a1)
    52000ae4:	06d80a63          	beq	a6,a3,52000b58 <check+0xc0>
    52000ae8:	ea0d                	bnez	a2,52000b1a <check+0x82>
    52000aea:	4354                	lw	a3,4(a4)
    52000aec:	0711                	addi	a4,a4,4
    52000aee:	0785                	addi	a5,a5,1
    52000af0:	8006861b          	addiw	a2,a3,-2048
    52000af4:	0591                	addi	a1,a1,4
    52000af6:	da71                	beqz	a2,52000aca <check+0x32>
    52000af8:	ded5                	beqz	a3,52000ab4 <check+0x1c>
    52000afa:	fdd88be3          	beq	a7,t4,52000ad0 <check+0x38>
    52000afe:	4990                	lw	a2,16(a1)
    52000b00:	fad60ae3          	beq	a2,a3,52000ab4 <check+0x1c>
    52000b04:	0007861b          	sext.w	a2,a5
    52000b08:	03d60e63          	beq	a2,t4,52000b44 <check+0xac>
    52000b0c:	00472803          	lw	a6,4(a4)
    52000b10:	02d80263          	beq	a6,a3,52000b34 <check+0x9c>
    52000b14:	fc0896e3          	bnez	a7,52000ae0 <check+0x48>
    52000b18:	da69                	beqz	a2,52000aea <check+0x52>
    52000b1a:	ffc72603          	lw	a2,-4(a4)
    52000b1e:	0785                	addi	a5,a5,1
    52000b20:	8e15                	sub	a2,a2,a3
    52000b22:	00163613          	seqz	a2,a2
    52000b26:	f8679be3          	bne	a5,t1,52000abc <check+0x24>
    52000b2a:	2885                	addiw	a7,a7,1
    52000b2c:	fa6880e3          	beq	a7,t1,52000acc <check+0x34>
    52000b30:	0e41                	addi	t3,t3,16
    52000b32:	bf85                	j	52000aa2 <check+0xa>
    52000b34:	4354                	lw	a3,4(a4)
    52000b36:	0711                	addi	a4,a4,4
    52000b38:	8006869b          	addiw	a3,a3,-2048
    52000b3c:	d6d9                	beqz	a3,52000aca <check+0x32>
    52000b3e:	0785                	addi	a5,a5,1
    52000b40:	0591                	addi	a1,a1,4
    52000b42:	bf8d                	j	52000ab4 <check+0x1c>
    52000b44:	00088f63          	beqz	a7,52000b62 <check+0xca>
    52000b48:	ff05a603          	lw	a2,-16(a1)
    52000b4c:	fcd617e3          	bne	a2,a3,52000b1a <check+0x82>
    52000b50:	2885                	addiw	a7,a7,1
    52000b52:	0e41                	addi	t3,t3,16
    52000b54:	4605                	li	a2,1
    52000b56:	b7b1                	j	52000aa2 <check+0xa>
    52000b58:	0785                	addi	a5,a5,1
    52000b5a:	0711                	addi	a4,a4,4
    52000b5c:	0591                	addi	a1,a1,4
    52000b5e:	4605                	li	a2,1
    52000b60:	b7a1                	j	52000aa8 <check+0x10>
    52000b62:	008e2603          	lw	a2,8(t3)
    52000b66:	4885                	li	a7,1
    52000b68:	0e41                	addi	t3,t3,16
    52000b6a:	8e15                	sub	a2,a2,a3
    52000b6c:	00163613          	seqz	a2,a2
    52000b70:	bf0d                	j	52000aa2 <check+0xa>
    52000b72:	5550                	lw	a2,44(a0)
    52000b74:	fad613e3          	bne	a2,a3,52000b1a <check+0x82>
    52000b78:	4605                	li	a2,1
    52000b7a:	bf89                	j	52000acc <check+0x34>

0000000052000b7c <initialize>:
    52000b7c:	1101                	addi	sp,sp,-32
    52000b7e:	ec06                	sd	ra,24(sp)
    52000b80:	87aa                	mv	a5,a0
    52000b82:	04050713          	addi	a4,a0,64
    52000b86:	0007a023          	sw	zero,0(a5)
    52000b8a:	0007a223          	sw	zero,4(a5)
    52000b8e:	0007a423          	sw	zero,8(a5)
    52000b92:	0007a623          	sw	zero,12(a5)
    52000b96:	07c1                	addi	a5,a5,16
    52000b98:	fee797e3          	bne	a5,a4,52000b86 <initialize+0xa>
    52000b9c:	4589                	li	a1,2
    52000b9e:	e42a                	sd	a0,8(sp)
    52000ba0:	c8fff0ef          	jal	5200082e <add>
    52000ba4:	6522                	ld	a0,8(sp)
    52000ba6:	60e2                	ld	ra,24(sp)
    52000ba8:	4589                	li	a1,2
    52000baa:	6105                	addi	sp,sp,32
    52000bac:	b149                	j	5200082e <add>

0000000052000bae <menu>:
    52000bae:	520007b7          	lui	a5,0x52000
    52000bb2:	f0078793          	addi	a5,a5,-256 # 51ffff00 <_start-0x100>
    52000bb6:	639c                	ld	a5,0(a5)
    52000bb8:	1101                	addi	sp,sp,-32
    52000bba:	e822                	sd	s0,16(sp)
    52000bbc:	e426                	sd	s1,8(sp)
    52000bbe:	ec06                	sd	ra,24(sp)
    52000bc0:	4701                	li	a4,0
    52000bc2:	4681                	li	a3,0
    52000bc4:	4601                	li	a2,0
    52000bc6:	4581                	li	a1,0
    52000bc8:	00000517          	auipc	a0,0x0
    52000bcc:	1c850513          	addi	a0,a0,456 # 52000d90 <print_scores+0x18c>
    52000bd0:	52000437          	lui	s0,0x52000
    52000bd4:	9782                	jalr	a5
    52000bd6:	f1040413          	addi	s0,s0,-240 # 51ffff10 <_start-0xf0>
    52000bda:	54fd                	li	s1,-1
    52000bdc:	601c                	ld	a5,0(s0)
    52000bde:	4701                	li	a4,0
    52000be0:	4681                	li	a3,0
    52000be2:	4601                	li	a2,0
    52000be4:	4581                	li	a1,0
    52000be6:	4501                	li	a0,0
    52000be8:	9782                	jalr	a5
    52000bea:	2501                	sext.w	a0,a0
    52000bec:	fe9508e3          	beq	a0,s1,52000bdc <menu+0x2e>
    52000bf0:	ff650793          	addi	a5,a0,-10
    52000bf4:	154d                	addi	a0,a0,-13
    52000bf6:	c391                	beqz	a5,52000bfa <menu+0x4c>
    52000bf8:	f175                	bnez	a0,52000bdc <menu+0x2e>
    52000bfa:	60e2                	ld	ra,24(sp)
    52000bfc:	6442                	ld	s0,16(sp)
    52000bfe:	64a2                	ld	s1,8(sp)
    52000c00:	6105                	addi	sp,sp,32
    52000c02:	8082                	ret

0000000052000c04 <print_scores>:
    52000c04:	711d                	addi	sp,sp,-96
    52000c06:	e8a2                	sd	s0,80(sp)
    52000c08:	52000437          	lui	s0,0x52000
    52000c0c:	f0043783          	ld	a5,-256(s0) # 51ffff00 <_start-0x100>
    52000c10:	ec86                	sd	ra,88(sp)
    52000c12:	e4a6                	sd	s1,72(sp)
    52000c14:	e0ca                	sd	s2,64(sp)
    52000c16:	84ae                	mv	s1,a1
    52000c18:	892a                	mv	s2,a0
    52000c1a:	4701                	li	a4,0
    52000c1c:	4681                	li	a3,0
    52000c1e:	4601                	li	a2,0
    52000c20:	4581                	li	a1,0
    52000c22:	00000517          	auipc	a0,0x0
    52000c26:	2be50513          	addi	a0,a0,702 # 52000ee0 <print_scores+0x2dc>
    52000c2a:	9782                	jalr	a5
    52000c2c:	0038                	addi	a4,sp,8
    52000c2e:	854a                	mv	a0,s2
    52000c30:	4781                	li	a5,0
    52000c32:	4681                	li	a3,0
    52000c34:	4601                	li	a2,0
    52000c36:	45a9                	li	a1,10
    52000c38:	d86ff0ef          	jal	520001be <simple_itoa.part.0>
    52000c3c:	f0043783          	ld	a5,-256(s0)
    52000c40:	0028                	addi	a0,sp,8
    52000c42:	4701                	li	a4,0
    52000c44:	4681                	li	a3,0
    52000c46:	4601                	li	a2,0
    52000c48:	4581                	li	a1,0
    52000c4a:	9782                	jalr	a5
    52000c4c:	f0043783          	ld	a5,-256(s0)
    52000c50:	4701                	li	a4,0
    52000c52:	4681                	li	a3,0
    52000c54:	4601                	li	a2,0
    52000c56:	4581                	li	a1,0
    52000c58:	00000517          	auipc	a0,0x0
    52000c5c:	29850513          	addi	a0,a0,664 # 52000ef0 <print_scores+0x2ec>
    52000c60:	9782                	jalr	a5
    52000c62:	0038                	addi	a4,sp,8
    52000c64:	8526                	mv	a0,s1
    52000c66:	4781                	li	a5,0
    52000c68:	4681                	li	a3,0
    52000c6a:	4601                	li	a2,0
    52000c6c:	45a9                	li	a1,10
    52000c6e:	d50ff0ef          	jal	520001be <simple_itoa.part.0>
    52000c72:	f0043783          	ld	a5,-256(s0)
    52000c76:	0028                	addi	a0,sp,8
    52000c78:	4701                	li	a4,0
    52000c7a:	4681                	li	a3,0
    52000c7c:	4601                	li	a2,0
    52000c7e:	4581                	li	a1,0
    52000c80:	9782                	jalr	a5
    52000c82:	f0043783          	ld	a5,-256(s0)
    52000c86:	6446                	ld	s0,80(sp)
    52000c88:	60e6                	ld	ra,88(sp)
    52000c8a:	64a6                	ld	s1,72(sp)
    52000c8c:	6906                	ld	s2,64(sp)
    52000c8e:	4701                	li	a4,0
    52000c90:	4681                	li	a3,0
    52000c92:	4601                	li	a2,0
    52000c94:	4581                	li	a1,0
    52000c96:	00000517          	auipc	a0,0x0
    52000c9a:	26a50513          	addi	a0,a0,618 # 52000f00 <print_scores+0x2fc>
    52000c9e:	6125                	addi	sp,sp,96
    52000ca0:	8782                	jr	a5
