
build/main:     file format elf64-littleriscv


Disassembly of section .text:

0000000050201000 <_start>:
    50201000:	10401073          	csrw	sie,zero
    50201004:	14401073          	csrw	sip,zero
    50201008:	00001297          	auipc	t0,0x1
    5020100c:	05828293          	addi	t0,t0,88 # 50202060 <buf>
    50201010:	00001317          	auipc	t1,0x1
    50201014:	20830313          	addi	t1,t1,520 # 50202218 <__BSS_END__>

0000000050201018 <clear_bss>:
    50201018:	0062d663          	bge	t0,t1,50201024 <bss_done>
    5020101c:	0002a023          	sw	zero,0(t0)
    50201020:	0291                	addi	t0,t0,4
    50201022:	bfdd                	j	50201018 <clear_bss>

0000000050201024 <bss_done>:
    50201024:	50500137          	lui	sp,0x50500
    50201028:	00a0006f          	j	50201032 <main>

000000005020102c <loop>:
    5020102c:	10500073          	wfi
    50201030:	bff5                	j	5020102c <loop>

0000000050201032 <main>:
    50201032:	7175                	addi	sp,sp,-144
    50201034:	e122                	sd	s0,128(sp)
    50201036:	00001417          	auipc	s0,0x1
    5020103a:	02a40413          	addi	s0,s0,42 # 50202060 <buf>
    5020103e:	f0d2                	sd	s4,96(sp)
    50201040:	ecd6                	sd	s5,88(sp)
    50201042:	e4de                	sd	s7,72(sp)
    50201044:	e0e2                	sd	s8,64(sp)
    50201046:	e506                	sd	ra,136(sp)
    50201048:	8c36                	mv	s8,a3
    5020104a:	fca6                	sd	s1,120(sp)
    5020104c:	f8ca                	sd	s2,112(sp)
    5020104e:	f4ce                	sd	s3,104(sp)
    50201050:	e8da                	sd	s6,80(sp)
    50201052:	8aaa                	mv	s5,a0
    50201054:	8a2e                	mv	s4,a1
    50201056:	8bb2                	mv	s7,a2
    50201058:	87a2                	mv	a5,s0
    5020105a:	00001697          	auipc	a3,0x1
    5020105e:	03868693          	addi	a3,a3,56 # 50202092 <buf+0x32>
    50201062:	a019                	j	50201068 <main+0x36>
    50201064:	2ef68a63          	beq	a3,a5,50201358 <main+0x326>
    50201068:	0007c703          	lbu	a4,0(a5)
    5020106c:	0785                	addi	a5,a5,1
    5020106e:	db7d                	beqz	a4,50201064 <main+0x32>
    50201070:	4901                	li	s2,0
    50201072:	014a87bb          	addw	a5,s5,s4
    50201076:	41f7d59b          	sraiw	a1,a5,0x1f
    5020107a:	0175d59b          	srliw	a1,a1,0x17
    5020107e:	41fad49b          	sraiw	s1,s5,0x1f
    50201082:	9dbd                	addw	a1,a1,a5
    50201084:	0174d49b          	srliw	s1,s1,0x17
    50201088:	1ff7f793          	andi	a5,a5,511
    5020108c:	00f037b3          	snez	a5,a5
    50201090:	4095d59b          	sraiw	a1,a1,0x9
    50201094:	015484bb          	addw	s1,s1,s5
    50201098:	4094d49b          	sraiw	s1,s1,0x9
    5020109c:	9dbd                	addw	a1,a1,a5
    5020109e:	00000517          	auipc	a0,0x0
    502010a2:	2e650513          	addi	a0,a0,742 # 50201384 <port_write>
    502010a6:	520007b7          	lui	a5,0x52000
    502010aa:	f0a7b023          	sd	a0,-256(a5) # 51ffff00 <__BSS_END__+0x1dfdce8>
    502010ae:	9d85                	subw	a1,a1,s1
    502010b0:	00000517          	auipc	a0,0x0
    502010b4:	2c050513          	addi	a0,a0,704 # 50201370 <port_write_ch>
    502010b8:	f0a7b423          	sd	a0,-248(a5)
    502010bc:	02049613          	slli	a2,s1,0x20
    502010c0:	00000517          	auipc	a0,0x0
    502010c4:	2d850513          	addi	a0,a0,728 # 50201398 <port_read_ch>
    502010c8:	00000697          	auipc	a3,0x0
    502010cc:	2f268693          	addi	a3,a3,754 # 502013ba <sd_read>
    502010d0:	00000717          	auipc	a4,0x0
    502010d4:	31270713          	addi	a4,a4,786 # 502013e2 <sd_write>
    502010d8:	1582                	slli	a1,a1,0x20
    502010da:	f0a7b823          	sd	a0,-240(a5)
    502010de:	f0d7bc23          	sd	a3,-232(a5)
    502010e2:	f2e7b023          	sd	a4,-224(a5)
    502010e6:	4681                	li	a3,0
    502010e8:	4701                	li	a4,0
    502010ea:	9181                	srli	a1,a1,0x20
    502010ec:	9201                	srli	a2,a2,0x20
    502010ee:	52500537          	lui	a0,0x52500
    502010f2:	89be                	mv	s3,a5
    502010f4:	2c6000ef          	jal	502013ba <sd_read>
    502010f8:	525005b7          	lui	a1,0x52500
    502010fc:	0094949b          	slliw	s1,s1,0x9
    50201100:	015585bb          	addw	a1,a1,s5
    50201104:	9d85                	subw	a1,a1,s1
    50201106:	8652                	mv	a2,s4
    50201108:	00001517          	auipc	a0,0x1
    5020110c:	f9050513          	addi	a0,a0,-112 # 50202098 <tasks>
    50201110:	067000ef          	jal	50201976 <memcpy>
    50201114:	018b87bb          	addw	a5,s7,s8
    50201118:	41f7d59b          	sraiw	a1,a5,0x1f
    5020111c:	0175d59b          	srliw	a1,a1,0x17
    50201120:	41fbd49b          	sraiw	s1,s7,0x1f
    50201124:	9dbd                	addw	a1,a1,a5
    50201126:	0174d49b          	srliw	s1,s1,0x17
    5020112a:	1ff7f793          	andi	a5,a5,511
    5020112e:	00f037b3          	snez	a5,a5
    50201132:	4095d59b          	sraiw	a1,a1,0x9
    50201136:	017484bb          	addw	s1,s1,s7
    5020113a:	4094d49b          	sraiw	s1,s1,0x9
    5020113e:	9dbd                	addw	a1,a1,a5
    50201140:	9d85                	subw	a1,a1,s1
    50201142:	f189b783          	ld	a5,-232(s3)
    50201146:	02049613          	slli	a2,s1,0x20
    5020114a:	1582                	slli	a1,a1,0x20
    5020114c:	4701                	li	a4,0
    5020114e:	4681                	li	a3,0
    50201150:	9181                	srli	a1,a1,0x20
    50201152:	9201                	srli	a2,a2,0x20
    50201154:	55000537          	lui	a0,0x55000
    50201158:	9782                	jalr	a5
    5020115a:	550005b7          	lui	a1,0x55000
    5020115e:	0094949b          	slliw	s1,s1,0x9
    50201162:	017585bb          	addw	a1,a1,s7
    50201166:	8662                	mv	a2,s8
    50201168:	9d85                	subw	a1,a1,s1
    5020116a:	55000537          	lui	a0,0x55000
    5020116e:	009000ef          	jal	50201976 <memcpy>
    50201172:	00001797          	auipc	a5,0x1
    50201176:	9ae78793          	addi	a5,a5,-1618 # 50201b20 <strcat+0x7e>
    5020117a:	6390                	ld	a2,0(a5)
    5020117c:	6794                	ld	a3,8(a5)
    5020117e:	6b98                	ld	a4,16(a5)
    50201180:	00001797          	auipc	a5,0x1
    50201184:	9b87d783          	lhu	a5,-1608(a5) # 50201b38 <strcat+0x96>
    50201188:	f032                	sd	a2,32(sp)
    5020118a:	f436                	sd	a3,40(sp)
    5020118c:	02f11c23          	sh	a5,56(sp) # 50500038 <__BSS_END__+0x2fde20>
    50201190:	f83a                	sd	a4,48(sp)
    50201192:	06600793          	li	a5,102
    50201196:	00090463          	beqz	s2,5020119e <main+0x16c>
    5020119a:	07400793          	li	a5,116
    5020119e:	00001717          	auipc	a4,0x1
    502011a2:	ebe72703          	lw	a4,-322(a4) # 5020205c <version>
    502011a6:	00f10423          	sb	a5,8(sp)
    502011aa:	00001617          	auipc	a2,0x1
    502011ae:	ed060613          	addi	a2,a2,-304 # 5020207a <buf+0x1a>
    502011b2:	0307071b          	addiw	a4,a4,48
    502011b6:	101c                	addi	a5,sp,32
    502011b8:	00e104a3          	sb	a4,9(sp)
    502011bc:	4581                	li	a1,0
    502011be:	05f00693          	li	a3,95
    502011c2:	0007c703          	lbu	a4,0(a5)
    502011c6:	0785                	addi	a5,a5,1
    502011c8:	00e40023          	sb	a4,0(s0)
    502011cc:	00d71963          	bne	a4,a3,502011de <main+0x1ac>
    502011d0:	00258733          	add	a4,a1,sp
    502011d4:	00874703          	lbu	a4,8(a4)
    502011d8:	2585                	addiw	a1,a1,1 # 55000001 <__BSS_END__+0x4dfdde9>
    502011da:	00e40023          	sb	a4,0(s0)
    502011de:	0405                	addi	s0,s0,1
    502011e0:	fe8611e3          	bne	a2,s0,502011c2 <main+0x190>
    502011e4:	00001517          	auipc	a0,0x1
    502011e8:	8ec50513          	addi	a0,a0,-1812 # 50201ad0 <strcat+0x2e>
    502011ec:	170000ef          	jal	5020135c <bios_putstr>
    502011f0:	00001517          	auipc	a0,0x1
    502011f4:	e7050513          	addi	a0,a0,-400 # 50202060 <buf>
    502011f8:	164000ef          	jal	5020135c <bios_putstr>
    502011fc:	00001517          	auipc	a0,0x1
    50201200:	8e450513          	addi	a0,a0,-1820 # 50201ae0 <strcat+0x3e>
    50201204:	52000937          	lui	s2,0x52000
    50201208:	154000ef          	jal	5020135c <bios_putstr>
    5020120c:	f0090913          	addi	s2,s2,-256 # 51ffff00 <__BSS_END__+0x1dfdce8>
    50201210:	00001417          	auipc	s0,0x1
    50201214:	e8840413          	addi	s0,s0,-376 # 50202098 <tasks>
    50201218:	00001497          	auipc	s1,0x1
    5020121c:	00048493          	mv	s1,s1
    50201220:	a021                	j	50201228 <main+0x1f6>
    50201222:	0461                	addi	s0,s0,24
    50201224:	04940663          	beq	s0,s1,50201270 <main+0x23e>
    50201228:	00044783          	lbu	a5,0(s0)
    5020122c:	dbfd                	beqz	a5,50201222 <main+0x1f0>
    5020122e:	00093783          	ld	a5,0(s2)
    50201232:	4701                	li	a4,0
    50201234:	4681                	li	a3,0
    50201236:	4601                	li	a2,0
    50201238:	4581                	li	a1,0
    5020123a:	00001517          	auipc	a0,0x1
    5020123e:	8b650513          	addi	a0,a0,-1866 # 50201af0 <strcat+0x4e>
    50201242:	9782                	jalr	a5
    50201244:	00093783          	ld	a5,0(s2)
    50201248:	8522                	mv	a0,s0
    5020124a:	4701                	li	a4,0
    5020124c:	4681                	li	a3,0
    5020124e:	4601                	li	a2,0
    50201250:	4581                	li	a1,0
    50201252:	9782                	jalr	a5
    50201254:	00093783          	ld	a5,0(s2)
    50201258:	4701                	li	a4,0
    5020125a:	4681                	li	a3,0
    5020125c:	4601                	li	a2,0
    5020125e:	4581                	li	a1,0
    50201260:	00001517          	auipc	a0,0x1
    50201264:	89850513          	addi	a0,a0,-1896 # 50201af8 <strcat+0x56>
    50201268:	0461                	addi	s0,s0,24
    5020126a:	9782                	jalr	a5
    5020126c:	fa941ee3          	bne	s0,s1,50201228 <main+0x1f6>
    50201270:	00001517          	auipc	a0,0x1
    50201274:	88850513          	addi	a0,a0,-1912 # 50201af8 <strcat+0x56>
    50201278:	52000937          	lui	s2,0x52000
    5020127c:	52000ab7          	lui	s5,0x52000
    50201280:	0dc000ef          	jal	5020135c <bios_putstr>
    50201284:	f1090913          	addi	s2,s2,-240 # 51ffff10 <__BSS_END__+0x1dfdcf8>
    50201288:	e802                	sd	zero,16(sp)
    5020128a:	ec02                	sd	zero,24(sp)
    5020128c:	f08a8a93          	addi	s5,s5,-248 # 51ffff08 <__BSS_END__+0x1dfdcf0>
    50201290:	4a01                	li	s4,0
    50201292:	59fd                	li	s3,-1
    50201294:	4b39                	li	s6,14
    50201296:	00093783          	ld	a5,0(s2)
    5020129a:	4701                	li	a4,0
    5020129c:	4681                	li	a3,0
    5020129e:	4601                	li	a2,0
    502012a0:	4581                	li	a1,0
    502012a2:	4501                	li	a0,0
    502012a4:	9782                	jalr	a5
    502012a6:	0005041b          	sext.w	s0,a0
    502012aa:	84aa                	mv	s1,a0
    502012ac:	ff3405e3          	beq	s0,s3,50201296 <main+0x264>
    502012b0:	000ab783          	ld	a5,0(s5)
    502012b4:	4701                	li	a4,0
    502012b6:	4681                	li	a3,0
    502012b8:	4601                	li	a2,0
    502012ba:	4581                	li	a1,0
    502012bc:	8522                	mv	a0,s0
    502012be:	9782                	jalr	a5
    502012c0:	ff340793          	addi	a5,s0,-13
    502012c4:	054b5063          	bge	s6,s4,50201304 <main+0x2d2>
    502012c8:	1459                	addi	s0,s0,-10
    502012ca:	c3ad                	beqz	a5,5020132c <main+0x2fa>
    502012cc:	f469                	bnez	s0,50201296 <main+0x264>
    502012ce:	000ab783          	ld	a5,0(s5)
    502012d2:	4701                	li	a4,0
    502012d4:	4681                	li	a3,0
    502012d6:	4601                	li	a2,0
    502012d8:	4581                	li	a1,0
    502012da:	4529                	li	a0,10
    502012dc:	9782                	jalr	a5
    502012de:	9a0a                	add	s4,s4,sp
    502012e0:	00001597          	auipc	a1,0x1
    502012e4:	82058593          	addi	a1,a1,-2016 # 50201b00 <strcat+0x5e>
    502012e8:	0808                	addi	a0,sp,16
    502012ea:	000a0823          	sb	zero,16(s4)
    502012ee:	6e8000ef          	jal	502019d6 <strcmp>
    502012f2:	e121                	bnez	a0,50201332 <main+0x300>
    502012f4:	85e2                	mv	a1,s8
    502012f6:	855e                	mv	a0,s7
    502012f8:	4a8000ef          	jal	502017a0 <batch_run>
    502012fc:	00010823          	sb	zero,16(sp)
    50201300:	4a01                	li	s4,0
    50201302:	bf51                	j	50201296 <main+0x264>
    50201304:	cb89                	beqz	a5,50201316 <main+0x2e4>
    50201306:	1459                	addi	s0,s0,-10
    50201308:	c419                	beqz	s0,50201316 <main+0x2e4>
    5020130a:	002a07b3          	add	a5,s4,sp
    5020130e:	00978823          	sb	s1,16(a5)
    50201312:	2a05                	addiw	s4,s4,1
    50201314:	b749                	j	50201296 <main+0x264>
    50201316:	000ab783          	ld	a5,0(s5)
    5020131a:	4701                	li	a4,0
    5020131c:	4681                	li	a3,0
    5020131e:	4601                	li	a2,0
    50201320:	4581                	li	a1,0
    50201322:	4529                	li	a0,10
    50201324:	9782                	jalr	a5
    50201326:	fc0a0be3          	beqz	s4,502012fc <main+0x2ca>
    5020132a:	bf55                	j	502012de <main+0x2ac>
    5020132c:	d04d                	beqz	s0,502012ce <main+0x29c>
    5020132e:	fff1                	bnez	a5,5020130a <main+0x2d8>
    50201330:	bf79                	j	502012ce <main+0x29c>
    50201332:	00000597          	auipc	a1,0x0
    50201336:	7de58593          	addi	a1,a1,2014 # 50201b10 <strcat+0x6e>
    5020133a:	0808                	addi	a0,sp,16
    5020133c:	69a000ef          	jal	502019d6 <strcmp>
    50201340:	e511                	bnez	a0,5020134c <main+0x31a>
    50201342:	85e2                	mv	a1,s8
    50201344:	855e                	mv	a0,s7
    50201346:	1d6000ef          	jal	5020151c <batch_write>
    5020134a:	bf4d                	j	502012fc <main+0x2ca>
    5020134c:	0808                	addi	a0,sp,16
    5020134e:	0bc000ef          	jal	5020140a <load_task_img>
    50201352:	d54d                	beqz	a0,502012fc <main+0x2ca>
    50201354:	9502                	jalr	a0
    50201356:	b75d                	j	502012fc <main+0x2ca>
    50201358:	4905                	li	s2,1
    5020135a:	bb21                	j	50201072 <main+0x40>

000000005020135c <bios_putstr>:
    5020135c:	520007b7          	lui	a5,0x52000
    50201360:	f0078793          	addi	a5,a5,-256 # 51ffff00 <__BSS_END__+0x1dfdce8>
    50201364:	639c                	ld	a5,0(a5)
    50201366:	4701                	li	a4,0
    50201368:	4681                	li	a3,0
    5020136a:	4601                	li	a2,0
    5020136c:	4581                	li	a1,0
    5020136e:	8782                	jr	a5

0000000050201370 <port_write_ch>:
    50201370:	50150337          	lui	t1,0x50150
    50201374:	4885                	li	a7,1
    50201376:	4801                	li	a6,0
    50201378:	4781                	li	a5,0
    5020137a:	4701                	li	a4,0
    5020137c:	4681                	li	a3,0
    5020137e:	4601                	li	a2,0
    50201380:	4581                	li	a1,0
    50201382:	8302                	jr	t1

0000000050201384 <port_write>:
    50201384:	50150337          	lui	t1,0x50150
    50201388:	48a5                	li	a7,9
    5020138a:	4801                	li	a6,0
    5020138c:	4781                	li	a5,0
    5020138e:	4701                	li	a4,0
    50201390:	4681                	li	a3,0
    50201392:	4601                	li	a2,0
    50201394:	4581                	li	a1,0
    50201396:	8302                	jr	t1

0000000050201398 <port_read_ch>:
    50201398:	1141                	addi	sp,sp,-16
    5020139a:	e406                	sd	ra,8(sp)
    5020139c:	50150337          	lui	t1,0x50150
    502013a0:	4889                	li	a7,2
    502013a2:	4801                	li	a6,0
    502013a4:	4781                	li	a5,0
    502013a6:	4701                	li	a4,0
    502013a8:	4681                	li	a3,0
    502013aa:	4601                	li	a2,0
    502013ac:	4581                	li	a1,0
    502013ae:	4501                	li	a0,0
    502013b0:	9302                	jalr	t1
    502013b2:	60a2                	ld	ra,8(sp)
    502013b4:	2501                	sext.w	a0,a0
    502013b6:	0141                	addi	sp,sp,16
    502013b8:	8082                	ret

00000000502013ba <sd_read>:
    502013ba:	1141                	addi	sp,sp,-16
    502013bc:	1502                	slli	a0,a0,0x20
    502013be:	1582                	slli	a1,a1,0x20
    502013c0:	1602                	slli	a2,a2,0x20
    502013c2:	e406                	sd	ra,8(sp)
    502013c4:	9101                	srli	a0,a0,0x20
    502013c6:	9181                	srli	a1,a1,0x20
    502013c8:	9201                	srli	a2,a2,0x20
    502013ca:	50150337          	lui	t1,0x50150
    502013ce:	48ad                	li	a7,11
    502013d0:	4801                	li	a6,0
    502013d2:	4781                	li	a5,0
    502013d4:	4701                	li	a4,0
    502013d6:	4681                	li	a3,0
    502013d8:	9302                	jalr	t1
    502013da:	60a2                	ld	ra,8(sp)
    502013dc:	2501                	sext.w	a0,a0
    502013de:	0141                	addi	sp,sp,16
    502013e0:	8082                	ret

00000000502013e2 <sd_write>:
    502013e2:	1141                	addi	sp,sp,-16
    502013e4:	1502                	slli	a0,a0,0x20
    502013e6:	1582                	slli	a1,a1,0x20
    502013e8:	1602                	slli	a2,a2,0x20
    502013ea:	e406                	sd	ra,8(sp)
    502013ec:	9101                	srli	a0,a0,0x20
    502013ee:	9181                	srli	a1,a1,0x20
    502013f0:	9201                	srli	a2,a2,0x20
    502013f2:	50150337          	lui	t1,0x50150
    502013f6:	48a9                	li	a7,10
    502013f8:	4801                	li	a6,0
    502013fa:	4781                	li	a5,0
    502013fc:	4701                	li	a4,0
    502013fe:	4681                	li	a3,0
    50201400:	9302                	jalr	t1
    50201402:	60a2                	ld	ra,8(sp)
    50201404:	2501                	sext.w	a0,a0
    50201406:	0141                	addi	sp,sp,16
    50201408:	8082                	ret

000000005020140a <load_task_img>:
    5020140a:	711d                	addi	sp,sp,-96
    5020140c:	fc4e                	sd	s3,56(sp)
    5020140e:	00001997          	auipc	s3,0x1
    50201412:	c8a98993          	addi	s3,s3,-886 # 50202098 <tasks>
    50201416:	e8a2                	sd	s0,80(sp)
    50201418:	e4a6                	sd	s1,72(sp)
    5020141a:	e0ca                	sd	s2,64(sp)
    5020141c:	f852                	sd	s4,48(sp)
    5020141e:	ec86                	sd	ra,88(sp)
    50201420:	8a2a                	mv	s4,a0
    50201422:	84ce                	mv	s1,s3
    50201424:	4401                	li	s0,0
    50201426:	4941                	li	s2,16
    50201428:	85d2                	mv	a1,s4
    5020142a:	8526                	mv	a0,s1
    5020142c:	5aa000ef          	jal	502019d6 <strcmp>
    50201430:	c941                	beqz	a0,502014c0 <load_task_img+0xb6>
    50201432:	2405                	addiw	s0,s0,1
    50201434:	04e1                	addi	s1,s1,24 # 50202230 <__BSS_END__+0x18>
    50201436:	ff2419e3          	bne	s0,s2,50201428 <load_task_img+0x1e>
    5020143a:	00000797          	auipc	a5,0x0
    5020143e:	70678793          	addi	a5,a5,1798 # 50201b40 <strcat+0x9e>
    50201442:	6394                	ld	a3,0(a5)
    50201444:	6798                	ld	a4,8(a5)
    50201446:	00000797          	auipc	a5,0x0
    5020144a:	70a7a783          	lw	a5,1802(a5) # 50201b50 <strcat+0xae>
    5020144e:	520004b7          	lui	s1,0x52000
    50201452:	f456                	sd	s5,40(sp)
    50201454:	e436                	sd	a3,8(sp)
    50201456:	e83a                	sd	a4,16(sp)
    50201458:	cc3e                	sw	a5,24(sp)
    5020145a:	00810993          	addi	s3,sp,8
    5020145e:	f0848493          	addi	s1,s1,-248 # 51ffff08 <__BSS_END__+0x1dfdcf0>
    50201462:	4901                	li	s2,0
    50201464:	05f00a93          	li	s5,95
    50201468:	a809                	j	5020147a <load_task_img+0x70>
    5020146a:	609c                	ld	a5,0(s1)
    5020146c:	4701                	li	a4,0
    5020146e:	4681                	li	a3,0
    50201470:	4601                	li	a2,0
    50201472:	4581                	li	a1,0
    50201474:	9782                	jalr	a5
    50201476:	2905                	addiw	s2,s2,1
    50201478:	0985                	addi	s3,s3,1
    5020147a:	0028                	addi	a0,sp,8
    5020147c:	53c000ef          	jal	502019b8 <strlen>
    50201480:	02a95663          	bge	s2,a0,502014ac <load_task_img+0xa2>
    50201484:	0009c503          	lbu	a0,0(s3)
    50201488:	ff5511e3          	bne	a0,s5,5020146a <load_task_img+0x60>
    5020148c:	000a4503          	lbu	a0,0(s4)
    50201490:	001a0413          	addi	s0,s4,1
    50201494:	d16d                	beqz	a0,50201476 <load_task_img+0x6c>
    50201496:	609c                	ld	a5,0(s1)
    50201498:	4701                	li	a4,0
    5020149a:	4681                	li	a3,0
    5020149c:	4601                	li	a2,0
    5020149e:	4581                	li	a1,0
    502014a0:	9782                	jalr	a5
    502014a2:	00044503          	lbu	a0,0(s0)
    502014a6:	0405                	addi	s0,s0,1
    502014a8:	f57d                	bnez	a0,50201496 <load_task_img+0x8c>
    502014aa:	b7f1                	j	50201476 <load_task_img+0x6c>
    502014ac:	60e6                	ld	ra,88(sp)
    502014ae:	6446                	ld	s0,80(sp)
    502014b0:	7aa2                	ld	s5,40(sp)
    502014b2:	64a6                	ld	s1,72(sp)
    502014b4:	6906                	ld	s2,64(sp)
    502014b6:	79e2                	ld	s3,56(sp)
    502014b8:	7a42                	ld	s4,48(sp)
    502014ba:	4501                	li	a0,0
    502014bc:	6125                	addi	sp,sp,96
    502014be:	8082                	ret
    502014c0:	00141793          	slli	a5,s0,0x1
    502014c4:	97a2                	add	a5,a5,s0
    502014c6:	078e                	slli	a5,a5,0x3
    502014c8:	99be                	add	s3,s3,a5
    502014ca:	0109a703          	lw	a4,16(s3)
    502014ce:	520007b7          	lui	a5,0x52000
    502014d2:	f1878793          	addi	a5,a5,-232 # 51ffff18 <__BSS_END__+0x1dfdd00>
    502014d6:	41f7549b          	sraiw	s1,a4,0x1f
    502014da:	0174d49b          	srliw	s1,s1,0x17
    502014de:	9cb9                	addw	s1,s1,a4
    502014e0:	0149e583          	lwu	a1,20(s3)
    502014e4:	4094d49b          	sraiw	s1,s1,0x9
    502014e8:	52000737          	lui	a4,0x52000
    502014ec:	639c                	ld	a5,0(a5)
    502014ee:	0442                	slli	s0,s0,0x10
    502014f0:	9c39                	addw	s0,s0,a4
    502014f2:	02049613          	slli	a2,s1,0x20
    502014f6:	8522                	mv	a0,s0
    502014f8:	9201                	srli	a2,a2,0x20
    502014fa:	4701                	li	a4,0
    502014fc:	4681                	li	a3,0
    502014fe:	9782                	jalr	a5
    50201500:	0109a503          	lw	a0,16(s3)
    50201504:	0094949b          	slliw	s1,s1,0x9
    50201508:	60e6                	ld	ra,88(sp)
    5020150a:	9d05                	subw	a0,a0,s1
    5020150c:	9d21                	addw	a0,a0,s0
    5020150e:	6446                	ld	s0,80(sp)
    50201510:	64a6                	ld	s1,72(sp)
    50201512:	6906                	ld	s2,64(sp)
    50201514:	79e2                	ld	s3,56(sp)
    50201516:	7a42                	ld	s4,48(sp)
    50201518:	6125                	addi	sp,sp,96
    5020151a:	8082                	ret

000000005020151c <batch_write>:
    5020151c:	d2010113          	addi	sp,sp,-736
    50201520:	29913423          	sd	s9,648(sp)
    50201524:	52000cb7          	lui	s9,0x52000
    50201528:	f00cb783          	ld	a5,-256(s9) # 51ffff00 <__BSS_END__+0x1dfdce8>
    5020152c:	2d213023          	sd	s2,704(sp)
    50201530:	2b313c23          	sd	s3,696(sp)
    50201534:	2b513423          	sd	s5,680(sp)
    50201538:	2b613023          	sd	s6,672(sp)
    5020153c:	29713c23          	sd	s7,664(sp)
    50201540:	29813823          	sd	s8,656(sp)
    50201544:	29a13023          	sd	s10,640(sp)
    50201548:	2c113c23          	sd	ra,728(sp)
    5020154c:	2c813823          	sd	s0,720(sp)
    50201550:	2c913423          	sd	s1,712(sp)
    50201554:	2b413823          	sd	s4,688(sp)
    50201558:	8d2a                	mv	s10,a0
    5020155a:	8c2e                	mv	s8,a1
    5020155c:	4701                	li	a4,0
    5020155e:	4681                	li	a3,0
    50201560:	4601                	li	a2,0
    50201562:	4581                	li	a1,0
    50201564:	00000517          	auipc	a0,0x0
    50201568:	5f450513          	addi	a0,a0,1524 # 50201b58 <strcat+0xb6>
    5020156c:	52000937          	lui	s2,0x52000
    50201570:	52000ab7          	lui	s5,0x52000
    50201574:	f00c8c93          	addi	s9,s9,-256
    50201578:	9782                	jalr	a5
    5020157a:	f1090913          	addi	s2,s2,-240 # 51ffff10 <__BSS_END__+0x1dfdcf8>
    5020157e:	f08a8a93          	addi	s5,s5,-248 # 51ffff08 <__BSS_END__+0x1dfdcf0>
    50201582:	4b81                	li	s7,0
    50201584:	59fd                	li	s3,-1
    50201586:	07f00b13          	li	s6,127
    5020158a:	000cb783          	ld	a5,0(s9)
    5020158e:	4701                	li	a4,0
    50201590:	4681                	li	a3,0
    50201592:	4601                	li	a2,0
    50201594:	4581                	li	a1,0
    50201596:	00000517          	auipc	a0,0x0
    5020159a:	60250513          	addi	a0,a0,1538 # 50201b98 <strcat+0xf6>
    5020159e:	9782                	jalr	a5
    502015a0:	4a01                	li	s4,0
    502015a2:	00093783          	ld	a5,0(s2)
    502015a6:	4701                	li	a4,0
    502015a8:	4681                	li	a3,0
    502015aa:	4601                	li	a2,0
    502015ac:	4581                	li	a1,0
    502015ae:	4501                	li	a0,0
    502015b0:	9782                	jalr	a5
    502015b2:	0005041b          	sext.w	s0,a0
    502015b6:	84aa                	mv	s1,a0
    502015b8:	ff3405e3          	beq	s0,s3,502015a2 <batch_write+0x86>
    502015bc:	000ab783          	ld	a5,0(s5)
    502015c0:	4701                	li	a4,0
    502015c2:	8522                	mv	a0,s0
    502015c4:	4681                	li	a3,0
    502015c6:	4601                	li	a2,0
    502015c8:	4581                	li	a1,0
    502015ca:	9782                	jalr	a5
    502015cc:	ff340793          	addi	a5,s0,-13
    502015d0:	280a0713          	addi	a4,s4,640
    502015d4:	1459                	addi	s0,s0,-10
    502015d6:	970a                	add	a4,a4,sp
    502015d8:	cb81                	beqz	a5,502015e8 <batch_write+0xcc>
    502015da:	c419                	beqz	s0,502015e8 <batch_write+0xcc>
    502015dc:	fd6a03e3          	beq	s4,s6,502015a2 <batch_write+0x86>
    502015e0:	d8970023          	sb	s1,-640(a4) # 51fffd80 <__BSS_END__+0x1dfdb68>
    502015e4:	2a05                	addiw	s4,s4,1
    502015e6:	bf75                	j	502015a2 <batch_write+0x86>
    502015e8:	000ab783          	ld	a5,0(s5)
    502015ec:	4701                	li	a4,0
    502015ee:	4681                	li	a3,0
    502015f0:	4601                	li	a2,0
    502015f2:	4581                	li	a1,0
    502015f4:	4529                	li	a0,10
    502015f6:	9782                	jalr	a5
    502015f8:	020a0563          	beqz	s4,50201622 <batch_write+0x106>
    502015fc:	014b84bb          	addw	s1,s7,s4
    50201600:	1784d563          	bge	s1,s8,5020176a <batch_write+0x24e>
    50201604:	55000437          	lui	s0,0x55000
    50201608:	008b8533          	add	a0,s7,s0
    5020160c:	8652                	mv	a2,s4
    5020160e:	858a                	mv	a1,sp
    50201610:	366000ef          	jal	50201976 <memcpy>
    50201614:	9426                	add	s0,s0,s1
    50201616:	47a9                	li	a5,10
    50201618:	00148b9b          	addiw	s7,s1,1
    5020161c:	00f40023          	sb	a5,0(s0) # 55000000 <__BSS_END__+0x4dfdde8>
    50201620:	b7ad                	j	5020158a <batch_write+0x6e>
    50201622:	178bc663          	blt	s7,s8,5020178e <batch_write+0x272>
    50201626:	01ac07bb          	addw	a5,s8,s10
    5020162a:	41f7d41b          	sraiw	s0,a5,0x1f
    5020162e:	0174541b          	srliw	s0,s0,0x17
    50201632:	41fd571b          	sraiw	a4,s10,0x1f
    50201636:	9c3d                	addw	s0,s0,a5
    50201638:	1ff7f793          	andi	a5,a5,511
    5020163c:	00f037b3          	snez	a5,a5
    50201640:	0177571b          	srliw	a4,a4,0x17
    50201644:	4094541b          	sraiw	s0,s0,0x9
    50201648:	9c3d                	addw	s0,s0,a5
    5020164a:	01a707bb          	addw	a5,a4,s10
    5020164e:	4097d99b          	sraiw	s3,a5,0x9
    50201652:	4134043b          	subw	s0,s0,s3
    50201656:	1ffd7d13          	andi	s10,s10,511
    5020165a:	8922                	mv	s2,s0
    5020165c:	8a4e                	mv	s4,s3
    5020165e:	4481                	li	s1,0
    50201660:	060d0863          	beqz	s10,502016d0 <batch_write+0x1b4>
    50201664:	520006b7          	lui	a3,0x52000
    50201668:	08010b13          	addi	s6,sp,128
    5020166c:	f186b803          	ld	a6,-232(a3) # 51ffff18 <__BSS_END__+0x1dfdd00>
    50201670:	020b1a13          	slli	s4,s6,0x20
    50201674:	02099a93          	slli	s5,s3,0x20
    50201678:	1ff7f793          	andi	a5,a5,511
    5020167c:	020a5a13          	srli	s4,s4,0x20
    50201680:	020ada93          	srli	s5,s5,0x20
    50201684:	40e7893b          	subw	s2,a5,a4
    50201688:	8552                	mv	a0,s4
    5020168a:	8656                	mv	a2,s5
    5020168c:	4701                	li	a4,0
    5020168e:	4681                	li	a3,0
    50201690:	4585                	li	a1,1
    50201692:	9802                	jalr	a6
    50201694:	20000793          	li	a5,512
    50201698:	412787bb          	subw	a5,a5,s2
    5020169c:	0007849b          	sext.w	s1,a5
    502016a0:	0efc4463          	blt	s8,a5,50201788 <batch_write+0x26c>
    502016a4:	012b0533          	add	a0,s6,s2
    502016a8:	8626                	mv	a2,s1
    502016aa:	550005b7          	lui	a1,0x55000
    502016ae:	2c8000ef          	jal	50201976 <memcpy>
    502016b2:	520007b7          	lui	a5,0x52000
    502016b6:	f2078793          	addi	a5,a5,-224 # 51ffff20 <__BSS_END__+0x1dfdd08>
    502016ba:	639c                	ld	a5,0(a5)
    502016bc:	8552                	mv	a0,s4
    502016be:	8656                	mv	a2,s5
    502016c0:	4701                	li	a4,0
    502016c2:	4681                	li	a3,0
    502016c4:	4585                	li	a1,1
    502016c6:	9782                	jalr	a5
    502016c8:	fff4091b          	addiw	s2,s0,-1
    502016cc:	00198a1b          	addiw	s4,s3,1
    502016d0:	520007b7          	lui	a5,0x52000
    502016d4:	f0078793          	addi	a5,a5,-256 # 51ffff00 <__BSS_END__+0x1dfdce8>
    502016d8:	639c                	ld	a5,0(a5)
    502016da:	4701                	li	a4,0
    502016dc:	4681                	li	a3,0
    502016de:	4601                	li	a2,0
    502016e0:	4581                	li	a1,0
    502016e2:	00000517          	auipc	a0,0x0
    502016e6:	4f650513          	addi	a0,a0,1270 # 50201bd8 <strcat+0x136>
    502016ea:	07205e63          	blez	s2,50201766 <batch_write+0x24a>
    502016ee:	9782                	jalr	a5
    502016f0:	550007b7          	lui	a5,0x55000
    502016f4:	00f4853b          	addw	a0,s1,a5
    502016f8:	520007b7          	lui	a5,0x52000
    502016fc:	f2078793          	addi	a5,a5,-224 # 51ffff20 <__BSS_END__+0x1dfdd08>
    50201700:	639c                	ld	a5,0(a5)
    50201702:	020a1613          	slli	a2,s4,0x20
    50201706:	1502                	slli	a0,a0,0x20
    50201708:	9201                	srli	a2,a2,0x20
    5020170a:	9101                	srli	a0,a0,0x20
    5020170c:	85ca                	mv	a1,s2
    5020170e:	4701                	li	a4,0
    50201710:	4681                	li	a3,0
    50201712:	9782                	jalr	a5
    50201714:	520007b7          	lui	a5,0x52000
    50201718:	f0078793          	addi	a5,a5,-256 # 51ffff00 <__BSS_END__+0x1dfdce8>
    5020171c:	639c                	ld	a5,0(a5)
    5020171e:	4701                	li	a4,0
    50201720:	4681                	li	a3,0
    50201722:	4601                	li	a2,0
    50201724:	4581                	li	a1,0
    50201726:	00000517          	auipc	a0,0x0
    5020172a:	4e250513          	addi	a0,a0,1250 # 50201c08 <strcat+0x166>
    5020172e:	9782                	jalr	a5
    50201730:	2d813083          	ld	ra,728(sp)
    50201734:	2d013403          	ld	s0,720(sp)
    50201738:	2c813483          	ld	s1,712(sp)
    5020173c:	2c013903          	ld	s2,704(sp)
    50201740:	2b813983          	ld	s3,696(sp)
    50201744:	2b013a03          	ld	s4,688(sp)
    50201748:	2a813a83          	ld	s5,680(sp)
    5020174c:	2a013b03          	ld	s6,672(sp)
    50201750:	29813b83          	ld	s7,664(sp)
    50201754:	29013c03          	ld	s8,656(sp)
    50201758:	28813c83          	ld	s9,648(sp)
    5020175c:	28013d03          	ld	s10,640(sp)
    50201760:	2e010113          	addi	sp,sp,736
    50201764:	8082                	ret
    50201766:	9782                	jalr	a5
    50201768:	b775                	j	50201714 <batch_write+0x1f8>
    5020176a:	520007b7          	lui	a5,0x52000
    5020176e:	f0078793          	addi	a5,a5,-256 # 51ffff00 <__BSS_END__+0x1dfdce8>
    50201772:	639c                	ld	a5,0(a5)
    50201774:	4701                	li	a4,0
    50201776:	4681                	li	a3,0
    50201778:	4601                	li	a2,0
    5020177a:	4581                	li	a1,0
    5020177c:	00000517          	auipc	a0,0x0
    50201780:	42450513          	addi	a0,a0,1060 # 50201ba0 <strcat+0xfe>
    50201784:	9782                	jalr	a5
    50201786:	b76d                	j	50201730 <batch_write+0x214>
    50201788:	000c049b          	sext.w	s1,s8
    5020178c:	bf21                	j	502016a4 <batch_write+0x188>
    5020178e:	55000537          	lui	a0,0x55000
    50201792:	955e                	add	a0,a0,s7
    50201794:	417c063b          	subw	a2,s8,s7
    50201798:	4581                	li	a1,0
    5020179a:	1f6000ef          	jal	50201990 <memset>
    5020179e:	b561                	j	50201626 <batch_write+0x10a>

00000000502017a0 <batch_run>:
    502017a0:	7139                	addi	sp,sp,-64
    502017a2:	f822                	sd	s0,48(sp)
    502017a4:	52000437          	lui	s0,0x52000
    502017a8:	f0043783          	ld	a5,-256(s0) # 51ffff00 <__BSS_END__+0x1dfdce8>
    502017ac:	f426                	sd	s1,40(sp)
    502017ae:	f04a                	sd	s2,32(sp)
    502017b0:	fc06                	sd	ra,56(sp)
    502017b2:	84aa                	mv	s1,a0
    502017b4:	892e                	mv	s2,a1
    502017b6:	4701                	li	a4,0
    502017b8:	4681                	li	a3,0
    502017ba:	4601                	li	a2,0
    502017bc:	4581                	li	a1,0
    502017be:	00000517          	auipc	a0,0x0
    502017c2:	46250513          	addi	a0,a0,1122 # 50201c20 <strcat+0x17e>
    502017c6:	9782                	jalr	a5
    502017c8:	f0040413          	addi	s0,s0,-256
    502017cc:	00043803          	ld	a6,0(s0)
    502017d0:	18048563          	beqz	s1,5020195a <batch_run+0x1ba>
    502017d4:	18090363          	beqz	s2,5020195a <batch_run+0x1ba>
    502017d8:	012487bb          	addw	a5,s1,s2
    502017dc:	41f7d41b          	sraiw	s0,a5,0x1f
    502017e0:	0174541b          	srliw	s0,s0,0x17
    502017e4:	9c3d                	addw	s0,s0,a5
    502017e6:	1ff7f793          	andi	a5,a5,511
    502017ea:	00f037b3          	snez	a5,a5
    502017ee:	ec4e                	sd	s3,24(sp)
    502017f0:	e852                	sd	s4,16(sp)
    502017f2:	e456                	sd	s5,8(sp)
    502017f4:	41f4d99b          	sraiw	s3,s1,0x1f
    502017f8:	4701                	li	a4,0
    502017fa:	4681                	li	a3,0
    502017fc:	4601                	li	a2,0
    502017fe:	4581                	li	a1,0
    50201800:	4094541b          	sraiw	s0,s0,0x9
    50201804:	00000517          	auipc	a0,0x0
    50201808:	46450513          	addi	a0,a0,1124 # 50201c68 <strcat+0x1c6>
    5020180c:	9c3d                	addw	s0,s0,a5
    5020180e:	0179d99b          	srliw	s3,s3,0x17
    50201812:	9802                	jalr	a6
    50201814:	00998abb          	addw	s5,s3,s1
    50201818:	520007b7          	lui	a5,0x52000
    5020181c:	409ada1b          	sraiw	s4,s5,0x9
    50201820:	f1878793          	addi	a5,a5,-232 # 51ffff18 <__BSS_END__+0x1dfdd00>
    50201824:	4144043b          	subw	s0,s0,s4
    50201828:	639c                	ld	a5,0(a5)
    5020182a:	020a1613          	slli	a2,s4,0x20
    5020182e:	02041593          	slli	a1,s0,0x20
    50201832:	9201                	srli	a2,a2,0x20
    50201834:	9181                	srli	a1,a1,0x20
    50201836:	4701                	li	a4,0
    50201838:	4681                	li	a3,0
    5020183a:	55000537          	lui	a0,0x55000
    5020183e:	1ff4f493          	andi	s1,s1,511
    50201842:	9782                	jalr	a5
    50201844:	55000a37          	lui	s4,0x55000
    50201848:	e0fd                	bnez	s1,5020192e <batch_run+0x18e>
    5020184a:	000a4483          	lbu	s1,0(s4) # 55000000 <__BSS_END__+0x4dfdde8>
    5020184e:	c8e5                	beqz	s1,5020193e <batch_run+0x19e>
    50201850:	52000ab7          	lui	s5,0x52000
    50201854:	9952                	add	s2,s2,s4
    50201856:	f00a8a93          	addi	s5,s5,-256 # 51ffff00 <__BSS_END__+0x1dfdce8>
    5020185a:	49a9                	li	s3,10
    5020185c:	032a7b63          	bgeu	s4,s2,50201892 <batch_run+0xf2>
    50201860:	8452                	mv	s0,s4
    50201862:	03348163          	beq	s1,s3,50201884 <batch_run+0xe4>
    50201866:	01247863          	bgeu	s0,s2,50201876 <batch_run+0xd6>
    5020186a:	c491                	beqz	s1,50201876 <batch_run+0xd6>
    5020186c:	00144483          	lbu	s1,1(s0)
    50201870:	0405                	addi	s0,s0,1
    50201872:	ff349ae3          	bne	s1,s3,50201866 <batch_run+0xc6>
    50201876:	414407bb          	subw	a5,s0,s4
    5020187a:	04f04263          	bgtz	a5,502018be <batch_run+0x11e>
    5020187e:	00044783          	lbu	a5,0(s0)
    50201882:	cb81                	beqz	a5,50201892 <batch_run+0xf2>
    50201884:	00140a13          	addi	s4,s0,1
    50201888:	012a7563          	bgeu	s4,s2,50201892 <batch_run+0xf2>
    5020188c:	00144483          	lbu	s1,1(s0)
    50201890:	f8e1                	bnez	s1,50201860 <batch_run+0xc0>
    50201892:	520007b7          	lui	a5,0x52000
    50201896:	f0078793          	addi	a5,a5,-256 # 51ffff00 <__BSS_END__+0x1dfdce8>
    5020189a:	639c                	ld	a5,0(a5)
    5020189c:	4701                	li	a4,0
    5020189e:	4681                	li	a3,0
    502018a0:	4601                	li	a2,0
    502018a2:	4581                	li	a1,0
    502018a4:	00000517          	auipc	a0,0x0
    502018a8:	46c50513          	addi	a0,a0,1132 # 50201d10 <strcat+0x26e>
    502018ac:	7442                	ld	s0,48(sp)
    502018ae:	69e2                	ld	s3,24(sp)
    502018b0:	6a42                	ld	s4,16(sp)
    502018b2:	6aa2                	ld	s5,8(sp)
    502018b4:	70e2                	ld	ra,56(sp)
    502018b6:	74a2                	ld	s1,40(sp)
    502018b8:	7902                	ld	s2,32(sp)
    502018ba:	6121                	addi	sp,sp,64
    502018bc:	8782                	jr	a5
    502018be:	00040023          	sb	zero,0(s0)
    502018c2:	000ab783          	ld	a5,0(s5)
    502018c6:	4701                	li	a4,0
    502018c8:	4681                	li	a3,0
    502018ca:	4601                	li	a2,0
    502018cc:	4581                	li	a1,0
    502018ce:	00000517          	auipc	a0,0x0
    502018d2:	3ea50513          	addi	a0,a0,1002 # 50201cb8 <strcat+0x216>
    502018d6:	9782                	jalr	a5
    502018d8:	000ab783          	ld	a5,0(s5)
    502018dc:	4701                	li	a4,0
    502018de:	4681                	li	a3,0
    502018e0:	4601                	li	a2,0
    502018e2:	4581                	li	a1,0
    502018e4:	8552                	mv	a0,s4
    502018e6:	9782                	jalr	a5
    502018e8:	8552                	mv	a0,s4
    502018ea:	b21ff0ef          	jal	5020140a <load_task_img>
    502018ee:	00940023          	sb	s1,0(s0)
    502018f2:	c105                	beqz	a0,50201912 <batch_run+0x172>
    502018f4:	9502                	jalr	a0
    502018f6:	000ab783          	ld	a5,0(s5)
    502018fa:	4701                	li	a4,0
    502018fc:	4681                	li	a3,0
    502018fe:	4601                	li	a2,0
    50201900:	4581                	li	a1,0
    50201902:	00000517          	auipc	a0,0x0
    50201906:	3c650513          	addi	a0,a0,966 # 50201cc8 <strcat+0x226>
    5020190a:	9782                	jalr	a5
    5020190c:	00044783          	lbu	a5,0(s0)
    50201910:	bf8d                	j	50201882 <batch_run+0xe2>
    50201912:	000ab783          	ld	a5,0(s5)
    50201916:	4701                	li	a4,0
    50201918:	4681                	li	a3,0
    5020191a:	4601                	li	a2,0
    5020191c:	4581                	li	a1,0
    5020191e:	00000517          	auipc	a0,0x0
    50201922:	3c250513          	addi	a0,a0,962 # 50201ce0 <strcat+0x23e>
    50201926:	9782                	jalr	a5
    50201928:	00044783          	lbu	a5,0(s0)
    5020192c:	bf99                	j	50201882 <batch_run+0xe2>
    5020192e:	1ffaf793          	andi	a5,s5,511
    50201932:	413787bb          	subw	a5,a5,s3
    50201936:	9a3e                	add	s4,s4,a5
    50201938:	000a4483          	lbu	s1,0(s4)
    5020193c:	f891                	bnez	s1,50201850 <batch_run+0xb0>
    5020193e:	520007b7          	lui	a5,0x52000
    50201942:	f0078793          	addi	a5,a5,-256 # 51ffff00 <__BSS_END__+0x1dfdce8>
    50201946:	639c                	ld	a5,0(a5)
    50201948:	4701                	li	a4,0
    5020194a:	4681                	li	a3,0
    5020194c:	4601                	li	a2,0
    5020194e:	4581                	li	a1,0
    50201950:	00000517          	auipc	a0,0x0
    50201954:	34050513          	addi	a0,a0,832 # 50201c90 <strcat+0x1ee>
    50201958:	bf91                	j	502018ac <batch_run+0x10c>
    5020195a:	7442                	ld	s0,48(sp)
    5020195c:	70e2                	ld	ra,56(sp)
    5020195e:	74a2                	ld	s1,40(sp)
    50201960:	7902                	ld	s2,32(sp)
    50201962:	4701                	li	a4,0
    50201964:	4681                	li	a3,0
    50201966:	4601                	li	a2,0
    50201968:	4581                	li	a1,0
    5020196a:	00000517          	auipc	a0,0x0
    5020196e:	2d650513          	addi	a0,a0,726 # 50201c40 <strcat+0x19e>
    50201972:	6121                	addi	sp,sp,64
    50201974:	8802                	jr	a6

0000000050201976 <memcpy>:
    50201976:	ce01                	beqz	a2,5020198e <memcpy+0x18>
    50201978:	1602                	slli	a2,a2,0x20
    5020197a:	9201                	srli	a2,a2,0x20
    5020197c:	962a                	add	a2,a2,a0
    5020197e:	0005c783          	lbu	a5,0(a1) # 55000000 <__BSS_END__+0x4dfdde8>
    50201982:	0505                	addi	a0,a0,1
    50201984:	0585                	addi	a1,a1,1
    50201986:	fef50fa3          	sb	a5,-1(a0)
    5020198a:	fec51ae3          	bne	a0,a2,5020197e <memcpy+0x8>
    5020198e:	8082                	ret

0000000050201990 <memset>:
    50201990:	ca09                	beqz	a2,502019a2 <memset+0x12>
    50201992:	1602                	slli	a2,a2,0x20
    50201994:	9201                	srli	a2,a2,0x20
    50201996:	962a                	add	a2,a2,a0
    50201998:	0505                	addi	a0,a0,1
    5020199a:	feb50fa3          	sb	a1,-1(a0)
    5020199e:	fec51de3          	bne	a0,a2,50201998 <memset+0x8>
    502019a2:	8082                	ret

00000000502019a4 <bzero>:
    502019a4:	c989                	beqz	a1,502019b6 <bzero+0x12>
    502019a6:	1582                	slli	a1,a1,0x20
    502019a8:	9181                	srli	a1,a1,0x20
    502019aa:	95aa                	add	a1,a1,a0
    502019ac:	0505                	addi	a0,a0,1
    502019ae:	fe050fa3          	sb	zero,-1(a0)
    502019b2:	feb51de3          	bne	a0,a1,502019ac <bzero+0x8>
    502019b6:	8082                	ret

00000000502019b8 <strlen>:
    502019b8:	00054783          	lbu	a5,0(a0)
    502019bc:	cb99                	beqz	a5,502019d2 <strlen+0x1a>
    502019be:	00150793          	addi	a5,a0,1
    502019c2:	86be                	mv	a3,a5
    502019c4:	0007c703          	lbu	a4,0(a5)
    502019c8:	0785                	addi	a5,a5,1
    502019ca:	ff65                	bnez	a4,502019c2 <strlen+0xa>
    502019cc:	40a6853b          	subw	a0,a3,a0
    502019d0:	8082                	ret
    502019d2:	4501                	li	a0,0
    502019d4:	8082                	ret

00000000502019d6 <strcmp>:
    502019d6:	00054703          	lbu	a4,0(a0)
    502019da:	eb01                	bnez	a4,502019ea <strcmp+0x14>
    502019dc:	a025                	j	50201a04 <strcmp+0x2e>
    502019de:	00e79b63          	bne	a5,a4,502019f4 <strcmp+0x1e>
    502019e2:	00054703          	lbu	a4,0(a0)
    502019e6:	cb11                	beqz	a4,502019fa <strcmp+0x24>
    502019e8:	0585                	addi	a1,a1,1
    502019ea:	0005c783          	lbu	a5,0(a1)
    502019ee:	0505                	addi	a0,a0,1
    502019f0:	f7fd                	bnez	a5,502019de <strcmp+0x8>
    502019f2:	2701                	sext.w	a4,a4
    502019f4:	40f7053b          	subw	a0,a4,a5
    502019f8:	8082                	ret
    502019fa:	0015c783          	lbu	a5,1(a1)
    502019fe:	40f7053b          	subw	a0,a4,a5
    50201a02:	8082                	ret
    50201a04:	0005c783          	lbu	a5,0(a1)
    50201a08:	b7f5                	j	502019f4 <strcmp+0x1e>

0000000050201a0a <strncmp>:
    50201a0a:	c21d                	beqz	a2,50201a30 <strncmp+0x26>
    50201a0c:	1602                	slli	a2,a2,0x20
    50201a0e:	9201                	srli	a2,a2,0x20
    50201a10:	962a                	add	a2,a2,a0
    50201a12:	a031                	j	50201a1e <strncmp+0x14>
    50201a14:	0585                	addi	a1,a1,1
    50201a16:	00e79f63          	bne	a5,a4,50201a34 <strncmp+0x2a>
    50201a1a:	00c50b63          	beq	a0,a2,50201a30 <strncmp+0x26>
    50201a1e:	00054783          	lbu	a5,0(a0)
    50201a22:	0005c703          	lbu	a4,0(a1)
    50201a26:	0505                	addi	a0,a0,1
    50201a28:	f7f5                	bnez	a5,50201a14 <strncmp+0xa>
    50201a2a:	4501                	li	a0,0
    50201a2c:	9d19                	subw	a0,a0,a4
    50201a2e:	8082                	ret
    50201a30:	4501                	li	a0,0
    50201a32:	8082                	ret
    50201a34:	0007851b          	sext.w	a0,a5
    50201a38:	9d19                	subw	a0,a0,a4
    50201a3a:	8082                	ret

0000000050201a3c <strcpy>:
    50201a3c:	0005c783          	lbu	a5,0(a1)
    50201a40:	872a                	mv	a4,a0
    50201a42:	cb81                	beqz	a5,50201a52 <strcpy+0x16>
    50201a44:	0585                	addi	a1,a1,1
    50201a46:	00f70023          	sb	a5,0(a4)
    50201a4a:	0005c783          	lbu	a5,0(a1)
    50201a4e:	0705                	addi	a4,a4,1
    50201a50:	fbf5                	bnez	a5,50201a44 <strcpy+0x8>
    50201a52:	00070023          	sb	zero,0(a4)
    50201a56:	8082                	ret

0000000050201a58 <strncpy>:
    50201a58:	0005c683          	lbu	a3,0(a1)
    50201a5c:	88b2                	mv	a7,a2
    50201a5e:	87aa                	mv	a5,a0
    50201a60:	c685                	beqz	a3,50201a88 <strncpy+0x30>
    50201a62:	fff6081b          	addiw	a6,a2,-1
    50201a66:	0105083b          	addw	a6,a0,a6
    50201a6a:	9e29                	addw	a2,a2,a0
    50201a6c:	a039                	j	50201a7a <strncpy+0x22>
    50201a6e:	00d78023          	sb	a3,0(a5)
    50201a72:	0005c683          	lbu	a3,0(a1)
    50201a76:	0785                	addi	a5,a5,1
    50201a78:	ca81                	beqz	a3,50201a88 <strncpy+0x30>
    50201a7a:	40f6073b          	subw	a4,a2,a5
    50201a7e:	0585                	addi	a1,a1,1
    50201a80:	40f808bb          	subw	a7,a6,a5
    50201a84:	fee045e3          	bgtz	a4,50201a6e <strncpy+0x16>
    50201a88:	02089713          	slli	a4,a7,0x20
    50201a8c:	9301                	srli	a4,a4,0x20
    50201a8e:	973e                	add	a4,a4,a5
    50201a90:	01105863          	blez	a7,50201aa0 <strncpy+0x48>
    50201a94:	0785                	addi	a5,a5,1
    50201a96:	fe078fa3          	sb	zero,-1(a5)
    50201a9a:	fef71de3          	bne	a4,a5,50201a94 <strncpy+0x3c>
    50201a9e:	8082                	ret
    50201aa0:	8082                	ret

0000000050201aa2 <strcat>:
    50201aa2:	00054783          	lbu	a5,0(a0)
    50201aa6:	c39d                	beqz	a5,50201acc <strcat+0x2a>
    50201aa8:	87aa                	mv	a5,a0
    50201aaa:	0017c703          	lbu	a4,1(a5)
    50201aae:	0785                	addi	a5,a5,1
    50201ab0:	ff6d                	bnez	a4,50201aaa <strcat+0x8>
    50201ab2:	0005c703          	lbu	a4,0(a1)
    50201ab6:	cb01                	beqz	a4,50201ac6 <strcat+0x24>
    50201ab8:	0785                	addi	a5,a5,1
    50201aba:	0585                	addi	a1,a1,1
    50201abc:	fee78fa3          	sb	a4,-1(a5)
    50201ac0:	0005c703          	lbu	a4,0(a1)
    50201ac4:	fb75                	bnez	a4,50201ab8 <strcat+0x16>
    50201ac6:	00078023          	sb	zero,0(a5)
    50201aca:	8082                	ret
    50201acc:	87aa                	mv	a5,a0
    50201ace:	bfcd                	j	50201ac0 <strcat+0x1e>
