
build/square:     file format elf64-littleriscv


Disassembly of section .text:

0000000052070000 <_start>:
    52070000:	838a                	mv	t2,sp
    52070002:	00000297          	auipc	t0,0x0
    52070006:	29e28293          	addi	t0,t0,670 # 520702a0 <buf>
    5207000a:	00000317          	auipc	t1,0x0
    5207000e:	2b630313          	addi	t1,t1,694 # 520702c0 <__BSS_END__>

0000000052070012 <clear_bss>:
    52070012:	0062d663          	bge	t0,t1,5207001e <bss_done>
    52070016:	0002a023          	sw	zero,0(t0)
    5207001a:	0291                	addi	t0,t0,4
    5207001c:	bfdd                	j	52070012 <clear_bss>

000000005207001e <bss_done>:
    5207001e:	53000137          	lui	sp,0x53000
    52070022:	1141                	addi	sp,sp,-16 # 52fffff0 <__BSS_END__+0xf8fd30>
    52070024:	e006                	sd	ra,0(sp)
    52070026:	e41e                	sd	t2,8(sp)
    52070028:	012000ef          	jal	5207003a <main>
    5207002c:	6082                	ld	ra,0(sp)
    5207002e:	63a2                	ld	t2,8(sp)
    52070030:	811e                	mv	sp,t2
    52070032:	9082                	jalr	ra

0000000052070034 <loop>:
    52070034:	10500073          	wfi
    52070038:	bff5                	j	52070034 <loop>

000000005207003a <main>:
    5207003a:	54000837          	lui	a6,0x54000
    5207003e:	00082503          	lw	a0,0(a6) # 54000000 <__BSS_END__+0x1f8fd40>
    52070042:	1141                	addi	sp,sp,-16
    52070044:	e406                	sd	ra,8(sp)
    52070046:	02a5053b          	mulw	a0,a0,a0
    5207004a:	4781                	li	a5,0
    5207004c:	00000717          	auipc	a4,0x0
    52070050:	25470713          	addi	a4,a4,596 # 520702a0 <buf>
    52070054:	4681                	li	a3,0
    52070056:	4601                	li	a2,0
    52070058:	45a9                	li	a1,10
    5207005a:	00a82023          	sw	a0,0(a6)
    5207005e:	044000ef          	jal	520700a2 <my_itoa>
    52070062:	00000517          	auipc	a0,0x0
    52070066:	18e50513          	addi	a0,a0,398 # 520701f0 <my_atoi+0x86>
    5207006a:	024000ef          	jal	5207008e <bios_putstr>
    5207006e:	00000517          	auipc	a0,0x0
    52070072:	23250513          	addi	a0,a0,562 # 520702a0 <buf>
    52070076:	018000ef          	jal	5207008e <bios_putstr>
    5207007a:	00000517          	auipc	a0,0x0
    5207007e:	18650513          	addi	a0,a0,390 # 52070200 <my_atoi+0x96>
    52070082:	00c000ef          	jal	5207008e <bios_putstr>
    52070086:	60a2                	ld	ra,8(sp)
    52070088:	4501                	li	a0,0
    5207008a:	0141                	addi	sp,sp,16
    5207008c:	8082                	ret

000000005207008e <bios_putstr>:
    5207008e:	520007b7          	lui	a5,0x52000
    52070092:	f0078793          	addi	a5,a5,-256 # 51ffff00 <_start-0x70100>
    52070096:	639c                	ld	a5,0(a5)
    52070098:	4701                	li	a4,0
    5207009a:	4681                	li	a3,0
    5207009c:	4601                	li	a2,0
    5207009e:	4581                	li	a1,0
    520700a0:	8782                	jr	a5

00000000520700a2 <my_itoa>:
    520700a2:	0c055263          	bgez	a0,52070166 <my_itoa+0xc4>
    520700a6:	e2e1                	bnez	a3,52070166 <my_itoa+0xc4>
    520700a8:	40a00533          	neg	a0,a0
    520700ac:	4305                	li	t1,1
    520700ae:	06100893          	li	a7,97
    520700b2:	c219                	beqz	a2,520700b8 <my_itoa+0x16>
    520700b4:	04100893          	li	a7,65
    520700b8:	1582                	slli	a1,a1,0x20
    520700ba:	9181                	srli	a1,a1,0x20
    520700bc:	38d9                	addiw	a7,a7,-10
    520700be:	863a                	mv	a2,a4
    520700c0:	4825                	li	a6,9
    520700c2:	a819                	j	520700d8 <my_itoa+0x36>
    520700c4:	0306869b          	addiw	a3,a3,48
    520700c8:	00d60023          	sb	a3,0(a2)
    520700cc:	0605                	addi	a2,a2,1
    520700ce:	02b556b3          	divu	a3,a0,a1
    520700d2:	02b56063          	bltu	a0,a1,520700f2 <my_itoa+0x50>
    520700d6:	8536                	mv	a0,a3
    520700d8:	02b576b3          	remu	a3,a0,a1
    520700dc:	fed874e3          	bgeu	a6,a3,520700c4 <my_itoa+0x22>
    520700e0:	00d886bb          	addw	a3,a7,a3
    520700e4:	00d60023          	sb	a3,0(a2)
    520700e8:	0605                	addi	a2,a2,1
    520700ea:	02b556b3          	divu	a3,a0,a1
    520700ee:	feb574e3          	bgeu	a0,a1,520700d6 <my_itoa+0x34>
    520700f2:	40e606bb          	subw	a3,a2,a4
    520700f6:	02f6f463          	bgeu	a3,a5,5207011e <my_itoa+0x7c>
    520700fa:	fff7859b          	addiw	a1,a5,-1
    520700fe:	9d95                	subw	a1,a1,a3
    52070100:	1582                	slli	a1,a1,0x20
    52070102:	9181                	srli	a1,a1,0x20
    52070104:	00158693          	addi	a3,a1,1
    52070108:	87b2                	mv	a5,a2
    5207010a:	03000513          	li	a0,48
    5207010e:	96b2                	add	a3,a3,a2
    52070110:	0785                	addi	a5,a5,1
    52070112:	fea78fa3          	sb	a0,-1(a5)
    52070116:	fed79de3          	bne	a5,a3,52070110 <my_itoa+0x6e>
    5207011a:	0605                	addi	a2,a2,1
    5207011c:	962e                	add	a2,a2,a1
    5207011e:	00030763          	beqz	t1,5207012c <my_itoa+0x8a>
    52070122:	02d00793          	li	a5,45
    52070126:	00f60023          	sb	a5,0(a2)
    5207012a:	0605                	addi	a2,a2,1
    5207012c:	40e6053b          	subw	a0,a2,a4
    52070130:	00060023          	sb	zero,0(a2)
    52070134:	fff5081b          	addiw	a6,a0,-1
    52070138:	03005663          	blez	a6,52070164 <my_itoa+0xc2>
    5207013c:	02081793          	slli	a5,a6,0x20
    52070140:	9381                	srli	a5,a5,0x20
    52070142:	4681                	li	a3,0
    52070144:	97ba                	add	a5,a5,a4
    52070146:	0007c583          	lbu	a1,0(a5)
    5207014a:	00074603          	lbu	a2,0(a4)
    5207014e:	2685                	addiw	a3,a3,1
    52070150:	00b70023          	sb	a1,0(a4)
    52070154:	00c78023          	sb	a2,0(a5)
    52070158:	40d8063b          	subw	a2,a6,a3
    5207015c:	0705                	addi	a4,a4,1
    5207015e:	17fd                	addi	a5,a5,-1
    52070160:	fec6c3e3          	blt	a3,a2,52070146 <my_itoa+0xa4>
    52070164:	8082                	ret
    52070166:	4301                	li	t1,0
    52070168:	b799                	j	520700ae <my_itoa+0xc>

000000005207016a <my_atoi>:
    5207016a:	00054783          	lbu	a5,0(a0)
    5207016e:	02000713          	li	a4,32
    52070172:	00e79763          	bne	a5,a4,52070180 <my_atoi+0x16>
    52070176:	00154783          	lbu	a5,1(a0)
    5207017a:	0505                	addi	a0,a0,1
    5207017c:	fee78de3          	beq	a5,a4,52070176 <my_atoi+0xc>
    52070180:	02d00713          	li	a4,45
    52070184:	06e78163          	beq	a5,a4,520701e6 <my_atoi+0x7c>
    52070188:	02b00713          	li	a4,43
    5207018c:	4805                	li	a6,1
    5207018e:	02e78f63          	beq	a5,a4,520701cc <my_atoi+0x62>
    52070192:	00054603          	lbu	a2,0(a0)
    52070196:	45a5                	li	a1,9
    52070198:	4701                	li	a4,0
    5207019a:	fd06069b          	addiw	a3,a2,-48
    5207019e:	0ff6f793          	zext.b	a5,a3
    520701a2:	04f5e063          	bltu	a1,a5,520701e2 <my_atoi+0x78>
    520701a6:	0027179b          	slliw	a5,a4,0x2
    520701aa:	00154603          	lbu	a2,1(a0)
    520701ae:	9fb9                	addw	a5,a5,a4
    520701b0:	0017979b          	slliw	a5,a5,0x1
    520701b4:	00f6873b          	addw	a4,a3,a5
    520701b8:	fd06069b          	addiw	a3,a2,-48
    520701bc:	0ff6f793          	zext.b	a5,a3
    520701c0:	0505                	addi	a0,a0,1
    520701c2:	fef5f2e3          	bgeu	a1,a5,520701a6 <my_atoi+0x3c>
    520701c6:	0307053b          	mulw	a0,a4,a6
    520701ca:	8082                	ret
    520701cc:	9542                	add	a0,a0,a6
    520701ce:	00054603          	lbu	a2,0(a0)
    520701d2:	45a5                	li	a1,9
    520701d4:	4701                	li	a4,0
    520701d6:	fd06069b          	addiw	a3,a2,-48
    520701da:	0ff6f793          	zext.b	a5,a3
    520701de:	fcf5f4e3          	bgeu	a1,a5,520701a6 <my_atoi+0x3c>
    520701e2:	4501                	li	a0,0
    520701e4:	8082                	ret
    520701e6:	0505                	addi	a0,a0,1
    520701e8:	587d                	li	a6,-1
    520701ea:	b765                	j	52070192 <my_atoi+0x28>
